EXPORTS
	_ZN16CIMPSSAPSettings10SetSAPPortEl @ 1 NONAME
	_ZN16CIMPSSAPSettings11SetSAPNameLERK7TDesC16 @ 2 NONAME
	_ZN16CIMPSSAPSettings12DeleteOpaqueERK7TDesC16 @ 3 NONAME
	_ZN16CIMPSSAPSettings12InternalizeLER11RReadStream @ 4 NONAME
	_ZN16CIMPSSAPSettings12SetClientIdLERK7TDesC16 @ 5 NONAME
	_ZN16CIMPSSAPSettings12SetOpaqueIntERK7TDesC16i @ 6 NONAME
	_ZN16CIMPSSAPSettings13SetSAPUserIdLERK7TDesC16 @ 7 NONAME
	_ZN16CIMPSSAPSettings14SetAccessGroupE16TIMPSAccessGroup @ 8 NONAME
	_ZN16CIMPSSAPSettings14SetAccessPointEm @ 9 NONAME
	_ZN16CIMPSSAPSettings14SetOpaqueDesC8ERK7TDesC16RK6TDesC8 @ 10 NONAME
	_ZN16CIMPSSAPSettings14SetSAPAddressLERK7TDesC16 @ 11 NONAME
	_ZN16CIMPSSAPSettings15SetOpaqueDesC16ERK7TDesC16S2_ @ 12 NONAME
	_ZN16CIMPSSAPSettings16SetHTTPProxyPortEl @ 13 NONAME
	_ZN16CIMPSSAPSettings18IncreaseLoginCountEv @ 14 NONAME
	_ZN16CIMPSSAPSettings19SetHTTPProxyUserIdLERK7TDesC16 @ 15 NONAME
	_ZN16CIMPSSAPSettings19SetSAPUserPasswordLERK7TDesC16 @ 16 NONAME
	_ZN16CIMPSSAPSettings20SetAuthorizationModeEm @ 17 NONAME
	_ZN16CIMPSSAPSettings20SetHTTPProxyAddressLERK7TDesC16 @ 18 NONAME
	_ZN16CIMPSSAPSettings20SetHighLevelServicesEm @ 19 NONAME
	_ZN16CIMPSSAPSettings25SetHTTPProxyUserPasswordLERK7TDesC16 @ 20 NONAME
	_ZN16CIMPSSAPSettings28SetServerAuthenticationNameLERK7TDesC16 @ 21 NONAME
	_ZN16CIMPSSAPSettings29SetServerAcceptedContentTypeLERK7TDesC16 @ 22 NONAME
	_ZN16CIMPSSAPSettings32SetServerAuthenticationPasswordLERK7TDesC16 @ 23 NONAME
	_ZN16CIMPSSAPSettings4NewLEv @ 24 NONAME
	_ZN16CIMPSSAPSettings5CopyLERKS_ @ 25 NONAME
	_ZN16CIMPSSAPSettings5NewLCEv @ 26 NONAME
	_ZN16CIMPSSAPSettings5ResetEv @ 27 NONAME
	_ZN16CIMPSSAPSettings8ProtectLE18TIMPSSAPProtection @ 28 NONAME
	_ZN16CIMPSSAPSettingsD0Ev @ 29 NONAME
	_ZN16CIMPSSAPSettingsD1Ev @ 30 NONAME
	_ZN16CIMPSSAPSettingsD2Ev @ 31 NONAME
	_ZN20CIMPSSAPSettingsList4NewLEv @ 32 NONAME
	_ZN20CIMPSSAPSettingsList5NewLCEv @ 33 NONAME
	_ZN20CIMPSSAPSettingsList6DeleteEi @ 34 NONAME
	_ZN20CIMPSSAPSettingsList6DeleteEii @ 35 NONAME
	_ZN20CIMPSSAPSettingsListD0Ev @ 36 NONAME
	_ZN20CIMPSSAPSettingsListD1Ev @ 37 NONAME
	_ZN20CIMPSSAPSettingsListD2Ev @ 38 NONAME
	_ZN21CIMPSSAPSettingsStore10DeleteSAPLEm @ 39 NONAME
	_ZN21CIMPSSAPSettingsStore11GetDefaultLEP16CIMPSSAPSettings16TIMPSAccessGroup @ 40 NONAME
	_ZN21CIMPSSAPSettingsStore11GetDefaultLERm16TIMPSAccessGroup @ 41 NONAME
	_ZN21CIMPSSAPSettingsStore12AddObserverLEP16MIMPSSAPObserver16TIMPSAccessGroup @ 42 NONAME
	_ZN21CIMPSSAPSettingsStore12StoreNewSAPLEP16CIMPSSAPSettings16TIMPSAccessGroup @ 43 NONAME
	_ZN21CIMPSSAPSettingsStore13SetToDefaultLEm16TIMPSAccessGroup @ 44 NONAME
	_ZN21CIMPSSAPSettingsStore13UpdateOldSAPLEP16CIMPSSAPSettingsm @ 45 NONAME
	_ZN21CIMPSSAPSettingsStore14RemoveObserverEP16MIMPSSAPObserver @ 46 NONAME
	_ZN21CIMPSSAPSettingsStore24PopulateSAPSettingsListLER20CIMPSSAPSettingsList16TIMPSAccessGroupi @ 47 NONAME
	_ZN21CIMPSSAPSettingsStore4NewLEi @ 48 NONAME
	_ZN21CIMPSSAPSettingsStore5NewLCEi @ 49 NONAME
	_ZN21CIMPSSAPSettingsStore7GetSAPLEmP16CIMPSSAPSettings @ 50 NONAME
	_ZN21CIMPSSAPSettingsStore9SAPCountLE16TIMPSAccessGroup @ 51 NONAME
	_ZN21CIMPSSAPSettingsStoreD0Ev @ 52 NONAME
	_ZN21CIMPSSAPSettingsStoreD1Ev @ 53 NONAME
	_ZN21CIMPSSAPSettingsStoreD2Ev @ 54 NONAME
	_ZN24CIMPSSAPSettingsListItem5NewLCERK7TDesC16m @ 55 NONAME
	_ZN24CIMPSSAPSettingsListItem5NewLCERK7TDesC16m16TIMPSAccessGroup @ 56 NONAME
	_ZN24CIMPSSAPSettingsListItem5NewLCERK7TDesC16m16TIMPSAccessGroup18TIMPSSAPProtection @ 57 NONAME
	_ZN24CIMPSSAPSettingsListItem5NewLCERK7TDesC16m18TIMPSSAPProtection @ 58 NONAME
	_ZN24CIMPSSAPSettingsListItemD0Ev @ 59 NONAME
	_ZN24CIMPSSAPSettingsListItemD1Ev @ 60 NONAME
	_ZN24CIMPSSAPSettingsListItemD2Ev @ 61 NONAME
	_ZNK16CIMPSSAPSettings10LoginCountEv @ 62 NONAME
	_ZNK16CIMPSSAPSettings10ProtectionEv @ 63 NONAME
	_ZNK16CIMPSSAPSettings10SAPAddressEv @ 64 NONAME
	_ZNK16CIMPSSAPSettings11AccessGroupEv @ 65 NONAME
	_ZNK16CIMPSSAPSettings11AccessPointEv @ 66 NONAME
	_ZNK16CIMPSSAPSettings12ExternalizeLER12RWriteStream @ 67 NONAME
	_ZNK16CIMPSSAPSettings12GetOpaqueIntERK7TDesC16Ri @ 68 NONAME
	_ZNK16CIMPSSAPSettings13HTTPProxyPortEv @ 69 NONAME
	_ZNK16CIMPSSAPSettings14GetOpaqueDesC8ERK7TDesC16R6TPtrC8 @ 70 NONAME
	_ZNK16CIMPSSAPSettings15GetOpaqueDesC16ERK7TDesC16R7TPtrC16 @ 71 NONAME
	_ZNK16CIMPSSAPSettings15HTTPProxyUserIdEv @ 72 NONAME
	_ZNK16CIMPSSAPSettings15SAPUserPasswordEv @ 73 NONAME
	_ZNK16CIMPSSAPSettings16HTTPProxyAddressEv @ 74 NONAME
	_ZNK16CIMPSSAPSettings17AuthorizationModeEv @ 75 NONAME
	_ZNK16CIMPSSAPSettings17EqualUserSettingsERKS_ @ 76 NONAME
	_ZNK16CIMPSSAPSettings17HighLevelServicesEv @ 77 NONAME
	_ZNK16CIMPSSAPSettings21HTTPProxyUserPasswordEv @ 78 NONAME
	_ZNK16CIMPSSAPSettings23EqualConnectionSettingsERKS_ @ 79 NONAME
	_ZNK16CIMPSSAPSettings24ServerAuthenticationNameEv @ 80 NONAME
	_ZNK16CIMPSSAPSettings25ServerAcceptedContentTypeEv @ 81 NONAME
	_ZNK16CIMPSSAPSettings28ServerAuthenticationPasswordEv @ 82 NONAME
	_ZNK16CIMPSSAPSettings3UidEv @ 83 NONAME
	_ZNK16CIMPSSAPSettings7SAPNameEv @ 84 NONAME
	_ZNK16CIMPSSAPSettings7SAPPortEv @ 85 NONAME
	_ZNK16CIMPSSAPSettings8ClientIdEv @ 86 NONAME
	_ZNK16CIMPSSAPSettings8DataSizeEv @ 87 NONAME
	_ZNK16CIMPSSAPSettings9SAPUserIdEv @ 88 NONAME
	_ZNK20CIMPSSAPSettingsList11IndexForUidEm @ 89 NONAME
	_ZNK20CIMPSSAPSettingsList11UidForIndexEi @ 90 NONAME
	_ZNK20CIMPSSAPSettingsList14ListItemForUidEm @ 91 NONAME
	_ZNK20CIMPSSAPSettingsList9FindNameLERK7TDesC16Ri @ 92 NONAME
	_ZNK20CIMPSSAPSettingsList9MdcaCountEv @ 93 NONAME
	_ZNK20CIMPSSAPSettingsList9MdcaPointEi @ 94 NONAME
	_ZNK24CIMPSSAPSettingsListItem10ProtectionEv @ 95 NONAME
	_ZNK24CIMPSSAPSettingsListItem11AccessGroupEv @ 96 NONAME
	_ZNK24CIMPSSAPSettingsListItem3UidEv @ 97 NONAME
	_ZNK24CIMPSSAPSettingsListItem4NameEv @ 98 NONAME
	_ZTI16CIMPSSAPSettings @ 99 NONAME ; #<TI>#
	_ZTI20CIMPSSAPSettingsList @ 100 NONAME ; #<TI>#
	_ZTI21CIMPSSAPSettingsStore @ 101 NONAME ; #<TI>#
	_ZTI24CIMPSSAPSettingsListItem @ 102 NONAME ; #<TI>#
	_ZTV16CIMPSSAPSettings @ 103 NONAME ; #<VT>#
	_ZTV20CIMPSSAPSettingsList @ 104 NONAME ; #<VT>#
	_ZTV21CIMPSSAPSettingsStore @ 105 NONAME ; #<VT>#
	_ZTV24CIMPSSAPSettingsListItem @ 106 NONAME ; #<VT>#
	_ZThn24_N20CIMPSSAPSettingsListD0Ev @ 107 NONAME ; #<thunk>#
	_ZThn24_N20CIMPSSAPSettingsListD1Ev @ 108 NONAME ; #<thunk>#
	_ZThn24_NK20CIMPSSAPSettingsList9MdcaCountEv @ 109 NONAME ; #<thunk>#
	_ZThn24_NK20CIMPSSAPSettingsList9MdcaPointEi @ 110 NONAME ; #<thunk>#
	_ZN16CIMPSSAPSettings7UnPackLERK6TDesC8 @ 111 NONAME
	_ZNK16CIMPSSAPSettings6PackLCEv @ 112 NONAME

