EXPORTS
	?ActiveContactListsL@CPEngContactListStore2@@QBEABVMDesC16Array@@XZ @ 1 NONAME ; public: class MDesC16Array const & __thiscall CPEngContactListStore2::ActiveContactListsL(void)const 
	?Add@CPEngContactListNotifier2@@QAEHABVTDesC16@@@Z @ 2 NONAME ; public: int __thiscall CPEngContactListNotifier2::Add(class TDesC16 const &)
	?Add@CPEngPresenceNotifier2@@QAEHABVTDesC16@@ABV?$TArray@K@@@Z @ 3 NONAME ; public: int __thiscall CPEngPresenceNotifier2::Add(class TDesC16 const &,class TArray<unsigned long> const &)
	?AddObserver@CPEngContactListNotifier2@@QAEHAAVMPEngContactListObserver2@@@Z @ 4 NONAME ; public: int __thiscall CPEngContactListNotifier2::AddObserver(class MPEngContactListObserver2 &)
	?AddObserver@CPEngNWSessionSlotNotifier2@@QAEHAAVMPEngNWSessionSlotObserver2@@@Z @ 5 NONAME ; public: int __thiscall CPEngNWSessionSlotNotifier2::AddObserver(class MPEngNWSessionSlotObserver2 &)
	?AddObserver@CPEngPresenceNotifier2@@QAEHAAVMPEngPresenceObserver2@@@Z @ 6 NONAME ; public: int __thiscall CPEngPresenceNotifier2::AddObserver(class MPEngPresenceObserver2 &)
	?AllContactListsL@CPEngContactListStore2@@QBEABVMDesC16Array@@XZ @ 7 NONAME ; public: class MDesC16Array const & __thiscall CPEngContactListStore2::AllContactListsL(void)const 
	?AppId@CPEngNWSessionSlotID2@@QBE?AVTPtrC16@@XZ @ 8 NONAME ; public: class TPtrC16 __thiscall CPEngNWSessionSlotID2::AppId(void)const 
	?AttachAttributeListToContactListL@CPEngAttributeListStore2@@QAEXABVTDesC16@@AAVMPEngAttributeList2@@@Z @ 9 NONAME ; public: void __thiscall CPEngAttributeListStore2::AttachAttributeListToContactListL(class TDesC16 const &,class MPEngAttributeList2 &)
	?AttachAttributeListToUserL@CPEngAttributeListStore2@@QAEXABVTDesC16@@AAVMPEngAttributeList2@@@Z @ 10 NONAME ; public: void __thiscall CPEngAttributeListStore2::AttachAttributeListToUserL(class TDesC16 const &,class MPEngAttributeList2 &)
	?AttributeTypeSupported@CPEngAttributeStore2@@QBEHK@Z @ 11 NONAME ; public: int __thiscall CPEngAttributeStore2::AttributeTypeSupported(unsigned long)const 
	?BaseSynchronizeContactLists@CPEngContactListTransaction2@@QAEHAAVMPEngContactListTransactionObserver2@@@Z @ 12 NONAME ; public: int __thiscall CPEngContactListTransaction2::BaseSynchronizeContactLists(class MPEngContactListTransactionObserver2 &)
	?CancelBaseSynchronizeContactLists@CPEngContactListTransaction2@@QAEXXZ @ 13 NONAME ; public: void __thiscall CPEngContactListTransaction2::CancelBaseSynchronizeContactLists(void)
	?CancelCloseNWPresenceSession@CPEngNWSessionSlot2@@QAEXXZ @ 14 NONAME ; public: void __thiscall CPEngNWSessionSlot2::CancelCloseNWPresenceSession(void)
	?CancelContactListPubSync@CPEngContactListTransaction2@@QAEXXZ @ 15 NONAME ; public: void __thiscall CPEngContactListTransaction2::CancelContactListPubSync(void)
	?CancelFetchAttributes@CPEngAttributeTransaction2@@QAEXXZ @ 16 NONAME ; public: void __thiscall CPEngAttributeTransaction2::CancelFetchAttributes(void)
	?CancelOpenNWPresenceSession@CPEngNWSessionSlot2@@QAEXXZ @ 17 NONAME ; public: void __thiscall CPEngNWSessionSlot2::CancelOpenNWPresenceSession(void)
	?CancelPublishAttributeLists@CPEngAttributeListTransaction2@@QAEXXZ @ 18 NONAME ; public: void __thiscall CPEngAttributeListTransaction2::CancelPublishAttributeLists(void)
	?CancelPublishOwnAttributes@CPEngAttributeTransaction2@@QAEXXZ @ 19 NONAME ; public: void __thiscall CPEngAttributeTransaction2::CancelPublishOwnAttributes(void)
	?CloneL@CPEngNWSessionSlotID2@@QBEPAV1@XZ @ 20 NONAME ; public: class CPEngNWSessionSlotID2 * __thiscall CPEngNWSessionSlotID2::CloneL(void)const 
	?CloneLC@CPEngNWSessionSlotEvent2@@QBEPAVCPEngNWSessionSlotEvent2Copy@@XZ @ 21 NONAME ; public: class CPEngNWSessionSlotEvent2Copy * __thiscall CPEngNWSessionSlotEvent2::CloneLC(void)const 
	?CloseNWPresenceSession@CPEngNWSessionSlot2@@QAEHAAVMPEngNWSessionOperationObserver2@@@Z @ 22 NONAME ; public: int __thiscall CPEngNWSessionSlot2::CloseNWPresenceSession(class MPEngNWSessionOperationObserver2 &)
	?CloseNWPresenceSessionOwnership@CPEngNWSessionSlot2@@QAEXXZ @ 23 NONAME ; public: void __thiscall CPEngNWSessionSlot2::CloseNWPresenceSessionOwnership(void)
	?ContactListL@CPEngContactListStore2@@QAEAAVMPEngContactList2@@ABVTDesC16@@@Z @ 24 NONAME ; public: class MPEngContactList2 & __thiscall CPEngContactListStore2::ContactListL(class TDesC16 const &)
	?ContactListPropertiesL@CPEngContactListStore2@@QAEAAVMPEngContactListProperties@@ABVTDesC16@@@Z @ 25 NONAME ; public: class MPEngContactListProperties & __thiscall CPEngContactListStore2::ContactListPropertiesL(class TDesC16 const &)
	?ContinuationIndex@CPEngSearchResult2@@QBEHXZ @ 26 NONAME ; public: int __thiscall CPEngSearchResult2::ContinuationIndex(void)const 
	?ContinueSearchFromNetwork@CPEngSearchTransaction2@@QAEHH@Z @ 27 NONAME ; public: int __thiscall CPEngSearchTransaction2::ContinueSearchFromNetwork(int)
	?CreateContactListL@CPEngContactListStore2@@QAEAAVMPEngContactListProperties@@ABVTDesC16@@AAVTPEngContactListBaseSettings@@@Z @ 28 NONAME ; public: class MPEngContactListProperties & __thiscall CPEngContactListStore2::CreateContactListL(class TDesC16 const &,class TPEngContactListBaseSettings &)
	?CreateEmptyAttributeListL@CPEngAttributeListStore2@@QAEPAVMPEngAttributeList2@@XZ @ 29 NONAME ; public: class MPEngAttributeList2 * __thiscall CPEngAttributeListStore2::CreateEmptyAttributeListL(void)
	?CreateNWSessionSlot@CPEngNWSessionSlotManager2@@QAEHABVCPEngNWSessionSlotID2@@@Z @ 30 NONAME ; public: int __thiscall CPEngNWSessionSlotManager2::CreateNWSessionSlot(class CPEngNWSessionSlotID2 const &)
	?CurrentFindingsCount@CPEngSearchResult2@@QBEHXZ @ 31 NONAME ; public: int __thiscall CPEngSearchResult2::CurrentFindingsCount(void)const 
	?DeleteAttributeListFromContactListL@CPEngAttributeListStore2@@QAEXABVTDesC16@@@Z @ 32 NONAME ; public: void __thiscall CPEngAttributeListStore2::DeleteAttributeListFromContactListL(class TDesC16 const &)
	?DeleteAttributeListFromUserL@CPEngAttributeListStore2@@QAEXABVTDesC16@@@Z @ 33 NONAME ; public: void __thiscall CPEngAttributeListStore2::DeleteAttributeListFromUserL(class TDesC16 const &)
	?DeleteContactListL@CPEngContactListStore2@@QAEXABVTDesC16@@@Z @ 34 NONAME ; public: void __thiscall CPEngContactListStore2::DeleteContactListL(class TDesC16 const &)
	?DeleteDefaultAttributeListL@CPEngAttributeListStore2@@QAEXXZ @ 35 NONAME ; public: void __thiscall CPEngAttributeListStore2::DeleteDefaultAttributeListL(void)
	?Element@CPEngSearchCriteria2@@QBEHXZ @ 36 NONAME ; public: int __thiscall CPEngSearchCriteria2::Element(void)const 
	?Event@CPEngNWSessionSlotEvent2@@QBE?AW4TPEngNWSessionSlotEvent@@XZ @ 37 NONAME ; public: enum TPEngNWSessionSlotEvent __thiscall CPEngNWSessionSlotEvent2::Event(void)const 
	?EventDesc16@CPEngNWSessionSlotEvent2@@QBE?AVTPtrC16@@XZ @ 38 NONAME ; public: class TPtrC16 __thiscall CPEngNWSessionSlotEvent2::EventDesc16(void)const 
	?EventInt@CPEngNWSessionSlotEvent2@@QBEHXZ @ 39 NONAME ; public: int __thiscall CPEngNWSessionSlotEvent2::EventInt(void)const 
	?ExistsNWSessionSlot@CPEngNWSessionSlotManager2@@QBEHABVCPEngNWSessionSlotID2@@@Z @ 40 NONAME ; public: int __thiscall CPEngNWSessionSlotManager2::ExistsNWSessionSlot(class CPEngNWSessionSlotID2 const &)const 
	?FetchAttributesToCache@CPEngAttributeTransaction2@@QAEHABVMDesC16Array@@ABV?$TArray@K@@AAVMPEngAttributeTransactionObserver2@@H@Z @ 41 NONAME ; public: int __thiscall CPEngAttributeTransaction2::FetchAttributesToCache(class MDesC16Array const &,class TArray<unsigned long> const &,class MPEngAttributeTransactionObserver2 &,int)
	?FetchAttributesToCache@CPEngAttributeTransaction2@@QAEHABVTDesC16@@ABV?$TArray@K@@AAVMPEngAttributeTransactionObserver2@@H@Z @ 42 NONAME ; public: int __thiscall CPEngAttributeTransaction2::FetchAttributesToCache(class TDesC16 const &,class TArray<unsigned long> const &,class MPEngAttributeTransactionObserver2 &,int)
	?FetchAttributesToObjects@CPEngAttributeTransaction2@@QAEHABVTDesC16@@ABV?$TArray@K@@AAVMPEngAttributeTransactionObserver2@@@Z @ 43 NONAME ; public: int __thiscall CPEngAttributeTransaction2::FetchAttributesToObjects(class TDesC16 const &,class TArray<unsigned long> const &,class MPEngAttributeTransactionObserver2 &)
	?FirstChangedAttribute@CPEngTrackedPresenceID2@@QAEKXZ @ 44 NONAME ; public: unsigned long __thiscall CPEngTrackedPresenceID2::FirstChangedAttribute(void)
	?FirstChangedPresenceID@CPEngTrackedPresenceIDs2@@QAEPAVCPEngTrackedPresenceID2@@XZ @ 45 NONAME ; public: class CPEngTrackedPresenceID2 * __thiscall CPEngTrackedPresenceIDs2::FirstChangedPresenceID(void)
	?FirstTrackedAttribute@CPEngTrackedPresenceID2@@QAEKXZ @ 46 NONAME ; public: unsigned long __thiscall CPEngTrackedPresenceID2::FirstTrackedAttribute(void)
	?FirstTrackedPresenceID@CPEngTrackedPresenceIDs2@@QAEPAVCPEngTrackedPresenceID2@@XZ @ 47 NONAME ; public: class CPEngTrackedPresenceID2 * __thiscall CPEngTrackedPresenceIDs2::FirstTrackedPresenceID(void)
	?ForceCloseNWPresenceSession@CPEngNWSessionSlot2@@QAEHAAVMPEngNWSessionOperationObserver2@@@Z @ 48 NONAME ; public: int __thiscall CPEngNWSessionSlot2::ForceCloseNWPresenceSession(class MPEngNWSessionOperationObserver2 &)
	?GetAndLockOwnAttribute@CPEngAttributeStore2@@QAEHKAAPAVMPEngPresenceAttrModel2@@@Z @ 49 NONAME ; public: int __thiscall CPEngAttributeStore2::GetAndLockOwnAttribute(unsigned long,class MPEngPresenceAttrModel2 * &)
	?GetAttributeListForContactListL@CPEngAttributeListStore2@@QAEPAVMPEngAttributeList2@@ABVTDesC16@@W4TPEngAttributeListsSet2@@@Z @ 50 NONAME ; public: class MPEngAttributeList2 * __thiscall CPEngAttributeListStore2::GetAttributeListForContactListL(class TDesC16 const &,enum TPEngAttributeListsSet2)
	?GetAttributeListForUserL@CPEngAttributeListStore2@@QAEPAVMPEngAttributeList2@@ABVTDesC16@@W4TPEngAttributeListsSet2@@@Z @ 51 NONAME ; public: class MPEngAttributeList2 * __thiscall CPEngAttributeListStore2::GetAttributeListForUserL(class TDesC16 const &,enum TPEngAttributeListsSet2)
	?GetCachedAttribute@CPEngAttributeStore2@@QBEHABVTDesC16@@KAAPAVMPEngPresenceAttrModel2@@@Z @ 52 NONAME ; public: int __thiscall CPEngAttributeStore2::GetCachedAttribute(class TDesC16 const &,unsigned long,class MPEngPresenceAttrModel2 * &)const 
	?GetDefaultAttributeListL@CPEngAttributeListStore2@@QAEPAVMPEngAttributeList2@@W4TPEngAttributeListsSet2@@@Z @ 53 NONAME ; public: class MPEngAttributeList2 * __thiscall CPEngAttributeListStore2::GetDefaultAttributeListL(enum TPEngAttributeListsSet2)
	?GetFetchedAttributes@CPEngAttributeTransaction2@@QAEHAAV?$RPointerArray@VMPEngPresenceAttrModel2@@@@@Z @ 54 NONAME ; public: int __thiscall CPEngAttributeTransaction2::GetFetchedAttributes(class RPointerArray<class MPEngPresenceAttrModel2> &)
	?GetNWPresenceSessionSap@CPEngNWSessionSlot2@@QBEHAAVCWVSAPSettings@@@Z @ 55 NONAME ; public: int __thiscall CPEngNWSessionSlot2::GetNWPresenceSessionSap(class CWVSAPSettings &)const 
	?GetNWSessionSlotID@CPEngNWSessionSlot2@@QBEHAAVCPEngNWSessionSlotID2@@@Z @ 56 NONAME ; public: int __thiscall CPEngNWSessionSlot2::GetNWSessionSlotID(class CPEngNWSessionSlotID2 &)const 
	?GetNWSessionSlotState@CPEngNWSessionSlot2@@QBEHAAW4TPEngNWSessionSlotState@@@Z @ 57 NONAME ; public: int __thiscall CPEngNWSessionSlot2::GetNWSessionSlotState(enum TPEngNWSessionSlotState &)const 
	?GetNWSessionSlotState@CPEngNWSessionSlotNotifier2@@QBEHABVCPEngNWSessionSlotID2@@AAW4TPEngNWSessionSlotState@@@Z @ 58 NONAME ; public: int __thiscall CPEngNWSessionSlotNotifier2::GetNWSessionSlotState(class CPEngNWSessionSlotID2 const &,enum TPEngNWSessionSlotState &)const 
	?GetNWSessionSlots@CPEngNWSessionSlotManager2@@QBEHAAV?$RPointerArray@VCPEngNWSessionSlotID2@@@@@Z @ 59 NONAME ; public: int __thiscall CPEngNWSessionSlotManager2::GetNWSessionSlots(class RPointerArray<class CPEngNWSessionSlotID2> &)const 
	?GetNWSessionSlots@CPEngNWSessionSlotManager2@@QBEHAAV?$RPointerArray@VCPEngNWSessionSlotID2@@@@ABVCPEngNWSessionSlotID2@@W4TPEngNWSessionSlotState@@@Z @ 60 NONAME ; public: int __thiscall CPEngNWSessionSlotManager2::GetNWSessionSlots(class RPointerArray<class CPEngNWSessionSlotID2> &,class CPEngNWSessionSlotID2 const &,enum TPEngNWSessionSlotState)const 
	?GetOption@CPEngNWSessionSlot2@@QAEHIIAAVTDes8@@@Z @ 61 NONAME ; public: int __thiscall CPEngNWSessionSlot2::GetOption(unsigned int,unsigned int,class TDes8 &)
	?GetOwnAttribute@CPEngAttributeStore2@@QBEHKAAPAVMPEngPresenceAttrModel2@@@Z @ 62 NONAME ; public: int __thiscall CPEngAttributeStore2::GetOwnAttribute(unsigned long,class MPEngPresenceAttrModel2 * &)const 
	?IsActive@CPEngContactListNotifier2@@QBEHXZ @ 63 NONAME ; public: int __thiscall CPEngContactListNotifier2::IsActive(void)const 
	?IsActive@CPEngNWSessionSlotNotifier2@@QBEHXZ @ 64 NONAME ; public: int __thiscall CPEngNWSessionSlotNotifier2::IsActive(void)const 
	?IsActive@CPEngPresenceNotifier2@@QBEHXZ @ 65 NONAME ; public: int __thiscall CPEngPresenceNotifier2::IsActive(void)const 
	?IsAppIdWild@CPEngNWSessionSlotID2@@QBEHXZ @ 66 NONAME ; public: int __thiscall CPEngNWSessionSlotID2::IsAppIdWild(void)const 
	?IsBaseSynchronizeContactListsActive@CPEngContactListTransaction2@@QBEHXZ @ 67 NONAME ; public: int __thiscall CPEngContactListTransaction2::IsBaseSynchronizeContactListsActive(void)const 
	?IsCloseNWPresenceSessionActive@CPEngNWSessionSlot2@@QBEHXZ @ 68 NONAME ; public: int __thiscall CPEngNWSessionSlot2::IsCloseNWPresenceSessionActive(void)const 
	?IsContactListPubSyncActive@CPEngContactListTransaction2@@QBEHXZ @ 69 NONAME ; public: int __thiscall CPEngContactListTransaction2::IsContactListPubSyncActive(void)const 
	?IsFetchAttributesActive@CPEngAttributeTransaction2@@QBEHXZ @ 70 NONAME ; public: int __thiscall CPEngAttributeTransaction2::IsFetchAttributesActive(void)const 
	?IsOpenNWPresenceSessionActive@CPEngNWSessionSlot2@@QBEHXZ @ 71 NONAME ; public: int __thiscall CPEngNWSessionSlot2::IsOpenNWPresenceSessionActive(void)const 
	?IsPublishAttributeListsActive@CPEngAttributeListTransaction2@@QBEHXZ @ 72 NONAME ; public: int __thiscall CPEngAttributeListTransaction2::IsPublishAttributeListsActive(void)const 
	?IsPublishOwnAttributesActive@CPEngAttributeTransaction2@@QBEHXZ @ 73 NONAME ; public: int __thiscall CPEngAttributeTransaction2::IsPublishOwnAttributesActive(void)const 
	?IsSearchFromNetworkActive@CPEngSearchTransaction2@@QBEHXZ @ 74 NONAME ; public: int __thiscall CPEngSearchTransaction2::IsSearchFromNetworkActive(void)const 
	?IsServiceAddressWild@CPEngNWSessionSlotID2@@QBEHXZ @ 75 NONAME ; public: int __thiscall CPEngNWSessionSlotID2::IsServiceAddressWild(void)const 
	?IsUserIdWild@CPEngNWSessionSlotID2@@QBEHXZ @ 76 NONAME ; public: int __thiscall CPEngNWSessionSlotID2::IsUserIdWild(void)const 
	?IsWild@CPEngNWSessionSlotID2@@QBEHXZ @ 77 NONAME ; public: int __thiscall CPEngNWSessionSlotID2::IsWild(void)const 
	?MatchAppIdPart@CPEngNWSessionSlotID2@@QBEHABV1@@Z @ 78 NONAME ; public: int __thiscall CPEngNWSessionSlotID2::MatchAppIdPart(class CPEngNWSessionSlotID2 const &)const 
	?MatchBasePart@CPEngNWSessionSlotID2@@QBEHABV1@@Z @ 79 NONAME ; public: int __thiscall CPEngNWSessionSlotID2::MatchBasePart(class CPEngNWSessionSlotID2 const &)const 
	?MatchFullId@CPEngNWSessionSlotID2@@QBEHABV1@@Z @ 80 NONAME ; public: int __thiscall CPEngNWSessionSlotID2::MatchFullId(class CPEngNWSessionSlotID2 const &)const 
	?NWSessionSlotID@CPEngNWSessionSlotEvent2@@QBEABVCPEngNWSessionSlotID2@@XZ @ 81 NONAME ; public: class CPEngNWSessionSlotID2 const & __thiscall CPEngNWSessionSlotEvent2::NWSessionSlotID(void)const 
	?NWSessionSlotState@CPEngNWSessionSlotEvent2@@QBE?AW4TPEngNWSessionSlotState@@XZ @ 82 NONAME ; public: enum TPEngNWSessionSlotState __thiscall CPEngNWSessionSlotEvent2::NWSessionSlotState(void)const 
	?NativeContactListsL@CPEngContactListStore2@@QBEABVMDesC16Array@@XZ @ 83 NONAME ; public: class MDesC16Array const & __thiscall CPEngContactListStore2::NativeContactListsL(void)const 
	?NewL@CPEngAttributeListStore2@@SAPAV1@ABVCPEngNWSessionSlotID2@@H@Z @ 84 NONAME ; public: static class CPEngAttributeListStore2 * __cdecl CPEngAttributeListStore2::NewL(class CPEngNWSessionSlotID2 const &,int)
	?NewL@CPEngAttributeListTransaction2@@SAPAV1@ABVCPEngNWSessionSlotID2@@H@Z @ 85 NONAME ; public: static class CPEngAttributeListTransaction2 * __cdecl CPEngAttributeListTransaction2::NewL(class CPEngNWSessionSlotID2 const &,int)
	?NewL@CPEngAttributeStore2@@SAPAV1@ABVCPEngNWSessionSlotID2@@H@Z @ 86 NONAME ; public: static class CPEngAttributeStore2 * __cdecl CPEngAttributeStore2::NewL(class CPEngNWSessionSlotID2 const &,int)
	?NewL@CPEngAttributeTransaction2@@SAPAV1@ABVCPEngNWSessionSlotID2@@H@Z @ 87 NONAME ; public: static class CPEngAttributeTransaction2 * __cdecl CPEngAttributeTransaction2::NewL(class CPEngNWSessionSlotID2 const &,int)
	?NewL@CPEngContactListNotifier2@@SAPAV1@ABVCPEngNWSessionSlotID2@@H@Z @ 88 NONAME ; public: static class CPEngContactListNotifier2 * __cdecl CPEngContactListNotifier2::NewL(class CPEngNWSessionSlotID2 const &,int)
	?NewL@CPEngContactListStore2@@SAPAV1@ABVCPEngNWSessionSlotID2@@H@Z @ 89 NONAME ; public: static class CPEngContactListStore2 * __cdecl CPEngContactListStore2::NewL(class CPEngNWSessionSlotID2 const &,int)
	?NewL@CPEngContactListTransaction2@@SAPAV1@ABVCPEngNWSessionSlotID2@@H@Z @ 90 NONAME ; public: static class CPEngContactListTransaction2 * __cdecl CPEngContactListTransaction2::NewL(class CPEngNWSessionSlotID2 const &,int)
	?NewL@CPEngNWSessionSlot2@@SAPAV1@ABVCPEngNWSessionSlotID2@@H@Z @ 91 NONAME ; public: static class CPEngNWSessionSlot2 * __cdecl CPEngNWSessionSlot2::NewL(class CPEngNWSessionSlotID2 const &,int)
	?NewL@CPEngNWSessionSlotID2@@SAPAV1@XZ @ 92 NONAME ; public: static class CPEngNWSessionSlotID2 * __cdecl CPEngNWSessionSlotID2::NewL(void)
	?NewL@CPEngNWSessionSlotManager2@@SAPAV1@H@Z @ 93 NONAME ; public: static class CPEngNWSessionSlotManager2 * __cdecl CPEngNWSessionSlotManager2::NewL(int)
	?NewL@CPEngNWSessionSlotNotifier2@@SAPAV1@H@Z @ 94 NONAME ; public: static class CPEngNWSessionSlotNotifier2 * __cdecl CPEngNWSessionSlotNotifier2::NewL(int)
	?NewL@CPEngPresenceNotifier2@@SAPAV1@ABVCPEngNWSessionSlotID2@@H@Z @ 95 NONAME ; public: static class CPEngPresenceNotifier2 * __cdecl CPEngPresenceNotifier2::NewL(class CPEngNWSessionSlotID2 const &,int)
	?NewL@CPEngSearchCriteria2@@SAPAV1@XZ @ 96 NONAME ; public: static class CPEngSearchCriteria2 * __cdecl CPEngSearchCriteria2::NewL(void)
	?NewL@CPEngSearchTransaction2@@SAPAV1@ABVCPEngNWSessionSlotID2@@H@Z @ 97 NONAME ; public: static class CPEngSearchTransaction2 * __cdecl CPEngSearchTransaction2::NewL(class CPEngNWSessionSlotID2 const &,int)
	?NewLC@CPEngAttributeListStore2@@SAPAV1@ABVCPEngNWSessionSlotID2@@H@Z @ 98 NONAME ; public: static class CPEngAttributeListStore2 * __cdecl CPEngAttributeListStore2::NewLC(class CPEngNWSessionSlotID2 const &,int)
	?NewLC@CPEngAttributeListTransaction2@@SAPAV1@ABVCPEngNWSessionSlotID2@@H@Z @ 99 NONAME ; public: static class CPEngAttributeListTransaction2 * __cdecl CPEngAttributeListTransaction2::NewLC(class CPEngNWSessionSlotID2 const &,int)
	?NewLC@CPEngAttributeStore2@@SAPAV1@ABVCPEngNWSessionSlotID2@@H@Z @ 100 NONAME ; public: static class CPEngAttributeStore2 * __cdecl CPEngAttributeStore2::NewLC(class CPEngNWSessionSlotID2 const &,int)
	?NewLC@CPEngAttributeTransaction2@@SAPAV1@ABVCPEngNWSessionSlotID2@@H@Z @ 101 NONAME ; public: static class CPEngAttributeTransaction2 * __cdecl CPEngAttributeTransaction2::NewLC(class CPEngNWSessionSlotID2 const &,int)
	?NewLC@CPEngContactListNotifier2@@SAPAV1@ABVCPEngNWSessionSlotID2@@H@Z @ 102 NONAME ; public: static class CPEngContactListNotifier2 * __cdecl CPEngContactListNotifier2::NewLC(class CPEngNWSessionSlotID2 const &,int)
	?NewLC@CPEngContactListStore2@@SAPAV1@ABVCPEngNWSessionSlotID2@@H@Z @ 103 NONAME ; public: static class CPEngContactListStore2 * __cdecl CPEngContactListStore2::NewLC(class CPEngNWSessionSlotID2 const &,int)
	?NewLC@CPEngContactListTransaction2@@SAPAV1@ABVCPEngNWSessionSlotID2@@H@Z @ 104 NONAME ; public: static class CPEngContactListTransaction2 * __cdecl CPEngContactListTransaction2::NewLC(class CPEngNWSessionSlotID2 const &,int)
	?NewLC@CPEngNWSessionSlot2@@SAPAV1@ABVCPEngNWSessionSlotID2@@H@Z @ 105 NONAME ; public: static class CPEngNWSessionSlot2 * __cdecl CPEngNWSessionSlot2::NewLC(class CPEngNWSessionSlotID2 const &,int)
	?NewLC@CPEngNWSessionSlotID2@@SAPAV1@XZ @ 106 NONAME ; public: static class CPEngNWSessionSlotID2 * __cdecl CPEngNWSessionSlotID2::NewLC(void)
	?NewLC@CPEngNWSessionSlotManager2@@SAPAV1@H@Z @ 107 NONAME ; public: static class CPEngNWSessionSlotManager2 * __cdecl CPEngNWSessionSlotManager2::NewLC(int)
	?NewLC@CPEngNWSessionSlotNotifier2@@SAPAV1@H@Z @ 108 NONAME ; public: static class CPEngNWSessionSlotNotifier2 * __cdecl CPEngNWSessionSlotNotifier2::NewLC(int)
	?NewLC@CPEngPresenceNotifier2@@SAPAV1@ABVCPEngNWSessionSlotID2@@H@Z @ 109 NONAME ; public: static class CPEngPresenceNotifier2 * __cdecl CPEngPresenceNotifier2::NewLC(class CPEngNWSessionSlotID2 const &,int)
	?NewLC@CPEngSearchCriteria2@@SAPAV1@XZ @ 110 NONAME ; public: static class CPEngSearchCriteria2 * __cdecl CPEngSearchCriteria2::NewLC(void)
	?NewLC@CPEngSearchTransaction2@@SAPAV1@ABVCPEngNWSessionSlotID2@@H@Z @ 111 NONAME ; public: static class CPEngSearchTransaction2 * __cdecl CPEngSearchTransaction2::NewLC(class CPEngNWSessionSlotID2 const &,int)
	?NextChangedAttribute@CPEngTrackedPresenceID2@@QAEKXZ @ 112 NONAME ; public: unsigned long __thiscall CPEngTrackedPresenceID2::NextChangedAttribute(void)
	?NextChangedPresenceID@CPEngTrackedPresenceIDs2@@QAEPAVCPEngTrackedPresenceID2@@XZ @ 113 NONAME ; public: class CPEngTrackedPresenceID2 * __thiscall CPEngTrackedPresenceIDs2::NextChangedPresenceID(void)
	?NextTrackedAttribute@CPEngTrackedPresenceID2@@QAEKXZ @ 114 NONAME ; public: unsigned long __thiscall CPEngTrackedPresenceID2::NextTrackedAttribute(void)
	?NextTrackedPresenceID@CPEngTrackedPresenceIDs2@@QAEPAVCPEngTrackedPresenceID2@@XZ @ 115 NONAME ; public: class CPEngTrackedPresenceID2 * __thiscall CPEngTrackedPresenceIDs2::NextTrackedPresenceID(void)
	?OpenNWPresenceSession@CPEngNWSessionSlot2@@QAEHABVCWVSAPSettings@@AAVMPEngNWSessionOperationObserver2@@@Z @ 116 NONAME ; public: int __thiscall CPEngNWSessionSlot2::OpenNWPresenceSession(class CWVSAPSettings const &,class MPEngNWSessionOperationObserver2 &)
	?OpenNWPresenceSessionOwnership@CPEngNWSessionSlot2@@QAEHXZ @ 117 NONAME ; public: int __thiscall CPEngNWSessionSlot2::OpenNWPresenceSessionOwnership(void)
	?OwnAttributeAvailable@CPEngAttributeStore2@@QBEHK@Z @ 118 NONAME ; public: int __thiscall CPEngAttributeStore2::OwnAttributeAvailable(unsigned long)const 
	?PackContactIdsLC@PEngContactItemExtensionCodec2@@SAPAVHBufC8@@ABVCContactIdArray@@@Z @ 119 NONAME ; public: static class HBufC8 * __cdecl PEngContactItemExtensionCodec2::PackContactIdsLC(class CContactIdArray const &)
	?PackL@CPEngNWSessionSlotID2@@QBEPAVHBufC8@@XZ @ 120 NONAME ; public: class HBufC8 * __thiscall CPEngNWSessionSlotID2::PackL(void)const 
	?PackLC@CPEngNWSessionSlotID2@@QBEPAVHBufC8@@XZ @ 121 NONAME ; public: class HBufC8 * __thiscall CPEngNWSessionSlotID2::PackLC(void)const 
	?PresenceID@CPEngTrackedPresenceID2@@QBE?AVTPtrC16@@XZ @ 122 NONAME ; public: class TPtrC16 __thiscall CPEngTrackedPresenceID2::PresenceID(void)const 
	?PublishAndUnLockOwnAttribute@CPEngAttributeTransaction2@@QAEHAAPAVMPEngPresenceAttrModel2@@AAVMPEngAttributeTransactionObserver2@@@Z @ 123 NONAME ; public: int __thiscall CPEngAttributeTransaction2::PublishAndUnLockOwnAttribute(class MPEngPresenceAttrModel2 * &,class MPEngAttributeTransactionObserver2 &)
	?PublishAndUnLockOwnAttributes@CPEngAttributeTransaction2@@QAEHAAV?$RPointerArray@VMPEngPresenceAttrModel2@@@@AAVMPEngAttributeTransactionObserver2@@@Z @ 124 NONAME ; public: int __thiscall CPEngAttributeTransaction2::PublishAndUnLockOwnAttributes(class RPointerArray<class MPEngPresenceAttrModel2> &,class MPEngAttributeTransactionObserver2 &)
	?PublishAttributeLists@CPEngAttributeListTransaction2@@QAEHAAVMPEngAttributeListTransactionObserver2@@@Z @ 125 NONAME ; public: int __thiscall CPEngAttributeListTransaction2::PublishAttributeLists(class MPEngAttributeListTransactionObserver2 &)
	?PublishContactList@CPEngContactListTransaction2@@QAEHABVTDesC16@@AAVMPEngContactListTransactionObserver2@@@Z @ 126 NONAME ; public: int __thiscall CPEngContactListTransaction2::PublishContactList(class TDesC16 const &,class MPEngContactListTransactionObserver2 &)
	?PublishContactLists@CPEngContactListTransaction2@@QAEHABVMDesC16Array@@AAVMPEngContactListTransactionObserver2@@@Z @ 127 NONAME ; public: int __thiscall CPEngContactListTransaction2::PublishContactLists(class MDesC16Array const &,class MPEngContactListTransactionObserver2 &)
	?PushNWSessionSlotStateToObservers@CPEngNWSessionSlotNotifier2@@QAEHABVCPEngNWSessionSlotID2@@@Z @ 128 NONAME ; public: int __thiscall CPEngNWSessionSlotNotifier2::PushNWSessionSlotStateToObservers(class CPEngNWSessionSlotID2 const &)
	?ReleaseContactList@CPEngContactListStore2@@QAEHABVTDesC16@@@Z @ 129 NONAME ; public: int __thiscall CPEngContactListStore2::ReleaseContactList(class TDesC16 const &)
	?ReleaseUnknownContactListFromStore@CPEngContactListStore2@@QAEHABVTDesC16@@@Z @ 130 NONAME ; public: int __thiscall CPEngContactListStore2::ReleaseUnknownContactListFromStore(class TDesC16 const &)
	?Remove@CPEngContactListNotifier2@@QAEHABVTDesC16@@@Z @ 131 NONAME ; public: int __thiscall CPEngContactListNotifier2::Remove(class TDesC16 const &)
	?Remove@CPEngPresenceNotifier2@@QAEHABVTDesC16@@@Z @ 132 NONAME ; public: int __thiscall CPEngPresenceNotifier2::Remove(class TDesC16 const &)
	?Remove@CPEngPresenceNotifier2@@QAEHK@Z @ 133 NONAME ; public: int __thiscall CPEngPresenceNotifier2::Remove(unsigned long)
	?RemoveNWSessionSlot@CPEngNWSessionSlotManager2@@QAEHABVCPEngNWSessionSlotID2@@@Z @ 134 NONAME ; public: int __thiscall CPEngNWSessionSlotManager2::RemoveNWSessionSlot(class CPEngNWSessionSlotID2 const &)
	?RemoveObserver@CPEngContactListNotifier2@@QAEHAAVMPEngContactListObserver2@@@Z @ 135 NONAME ; public: int __thiscall CPEngContactListNotifier2::RemoveObserver(class MPEngContactListObserver2 &)
	?RemoveObserver@CPEngNWSessionSlotNotifier2@@QAEHAAVMPEngNWSessionSlotObserver2@@@Z @ 136 NONAME ; public: int __thiscall CPEngNWSessionSlotNotifier2::RemoveObserver(class MPEngNWSessionSlotObserver2 &)
	?RemoveObserver@CPEngPresenceNotifier2@@QAEHAAVMPEngPresenceObserver2@@@Z @ 137 NONAME ; public: int __thiscall CPEngPresenceNotifier2::RemoveObserver(class MPEngPresenceObserver2 &)
	?ResetChangedIterator@CPEngTrackedPresenceID2@@QAEXXZ @ 138 NONAME ; public: void __thiscall CPEngTrackedPresenceID2::ResetChangedIterator(void)
	?ResetChangedIterator@CPEngTrackedPresenceIDs2@@QAEXXZ @ 139 NONAME ; public: void __thiscall CPEngTrackedPresenceIDs2::ResetChangedIterator(void)
	?ResetTrackedIterator@CPEngTrackedPresenceID2@@QAEXXZ @ 140 NONAME ; public: void __thiscall CPEngTrackedPresenceID2::ResetTrackedIterator(void)
	?ResetTrackedIterator@CPEngTrackedPresenceIDs2@@QAEXXZ @ 141 NONAME ; public: void __thiscall CPEngTrackedPresenceIDs2::ResetTrackedIterator(void)
	?RestoreNWPresenceSessionOwnership@CPEngNWSessionSlot2@@QAEHABVTDesC16@@@Z @ 142 NONAME ; public: int __thiscall CPEngNWSessionSlot2::RestoreNWPresenceSessionOwnership(class TDesC16 const &)
	?SearchCompleted@CPEngSearchResult2@@QBEHXZ @ 143 NONAME ; public: int __thiscall CPEngSearchResult2::SearchCompleted(void)const 
	?SearchFromNetwork@CPEngSearchTransaction2@@QAEHAAPAVCPEngSearchCriteria2@@HAAVMPEngSearchTransactionObserver2@@@Z @ 144 NONAME ; public: int __thiscall CPEngSearchTransaction2::SearchFromNetwork(class CPEngSearchCriteria2 * &,int,class MPEngSearchTransactionObserver2 &)
	?SearchFromNetwork@CPEngSearchTransaction2@@QAEHAAV?$RPointerArray@VCPEngSearchCriteria2@@@@HAAVMPEngSearchTransactionObserver2@@@Z @ 145 NONAME ; public: int __thiscall CPEngSearchTransaction2::SearchFromNetwork(class RPointerArray<class CPEngSearchCriteria2> &,int,class MPEngSearchTransactionObserver2 &)
	?SearchValue@CPEngSearchCriteria2@@QBEABVTDesC16@@XZ @ 146 NONAME ; public: class TDesC16 const & __thiscall CPEngSearchCriteria2::SearchValue(void)const 
	?ServiceAddress@CPEngNWSessionSlotID2@@QBE?AVTPtrC16@@XZ @ 147 NONAME ; public: class TPtrC16 __thiscall CPEngNWSessionSlotID2::ServiceAddress(void)const 
	?SetAllL@CPEngNWSessionSlotID2@@QAEXABVTDesC16@@00@Z @ 148 NONAME ; public: void __thiscall CPEngNWSessionSlotID2::SetAllL(class TDesC16 const &,class TDesC16 const &,class TDesC16 const &)
	?SetAppIdL@CPEngNWSessionSlotID2@@QAEXABVTDesC16@@@Z @ 149 NONAME ; public: void __thiscall CPEngNWSessionSlotID2::SetAppIdL(class TDesC16 const &)
	?SetAppIdMatchAnyL@CPEngNWSessionSlotID2@@QAEXXZ @ 150 NONAME ; public: void __thiscall CPEngNWSessionSlotID2::SetAppIdMatchAnyL(void)
	?SetAsDefaultAttributeListL@CPEngAttributeListStore2@@QAEXAAVMPEngAttributeList2@@@Z @ 151 NONAME ; public: void __thiscall CPEngAttributeListStore2::SetAsDefaultAttributeListL(class MPEngAttributeList2 &)
	?SetAsDefaultContactListL@CPEngContactListStore2@@QAEXABVTDesC16@@@Z @ 152 NONAME ; public: void __thiscall CPEngContactListStore2::SetAsDefaultContactListL(class TDesC16 const &)
	?SetSearchL@CPEngSearchCriteria2@@QAEXHABVTDesC16@@@Z @ 153 NONAME ; public: void __thiscall CPEngSearchCriteria2::SetSearchL(int,class TDesC16 const &)
	?SetServiceAddressL@CPEngNWSessionSlotID2@@QAEXABVTDesC16@@@Z @ 154 NONAME ; public: void __thiscall CPEngNWSessionSlotID2::SetServiceAddressL(class TDesC16 const &)
	?SetServiceAddressMatchAnyL@CPEngNWSessionSlotID2@@QAEXXZ @ 155 NONAME ; public: void __thiscall CPEngNWSessionSlotID2::SetServiceAddressMatchAnyL(void)
	?SetUserIdL@CPEngNWSessionSlotID2@@QAEXABVTDesC16@@@Z @ 156 NONAME ; public: void __thiscall CPEngNWSessionSlotID2::SetUserIdL(class TDesC16 const &)
	?SetUserIdMatchAnyL@CPEngNWSessionSlotID2@@QAEXXZ @ 157 NONAME ; public: void __thiscall CPEngNWSessionSlotID2::SetUserIdMatchAnyL(void)
	?Start@CPEngContactListNotifier2@@QAEHABVMDesC16Array@@@Z @ 158 NONAME ; public: int __thiscall CPEngContactListNotifier2::Start(class MDesC16Array const &)
	?Start@CPEngContactListNotifier2@@QAEHABVTDesC16@@@Z @ 159 NONAME ; public: int __thiscall CPEngContactListNotifier2::Start(class TDesC16 const &)
	?Start@CPEngNWSessionSlotNotifier2@@QAEHABV?$TArray@W4TPEngNWSessionSlotEvent@@@@@Z @ 160 NONAME ; public: int __thiscall CPEngNWSessionSlotNotifier2::Start(class TArray<enum TPEngNWSessionSlotEvent> const &)
	?Start@CPEngNWSessionSlotNotifier2@@QAEHABVCPEngNWSessionSlotID2@@@Z @ 161 NONAME ; public: int __thiscall CPEngNWSessionSlotNotifier2::Start(class CPEngNWSessionSlotID2 const &)
	?Start@CPEngNWSessionSlotNotifier2@@QAEHXZ @ 162 NONAME ; public: int __thiscall CPEngNWSessionSlotNotifier2::Start(void)
	?Start@CPEngPresenceNotifier2@@QAEHABVMDesC16Array@@ABV?$TArray@K@@@Z @ 163 NONAME ; public: int __thiscall CPEngPresenceNotifier2::Start(class MDesC16Array const &,class TArray<unsigned long> const &)
	?Start@CPEngPresenceNotifier2@@QAEHABVMPEngContactList2@@W4TPEngContactListView@@ABV?$TArray@K@@@Z @ 164 NONAME ; public: int __thiscall CPEngPresenceNotifier2::Start(class MPEngContactList2 const &,enum TPEngContactListView,class TArray<unsigned long> const &)
	?Start@CPEngPresenceNotifier2@@QAEHABVTDesC16@@ABV?$TArray@K@@@Z @ 165 NONAME ; public: int __thiscall CPEngPresenceNotifier2::Start(class TDesC16 const &,class TArray<unsigned long> const &)
	?Stop@CPEngContactListNotifier2@@QAEXXZ @ 166 NONAME ; public: void __thiscall CPEngContactListNotifier2::Stop(void)
	?Stop@CPEngNWSessionSlotNotifier2@@QAEXXZ @ 167 NONAME ; public: void __thiscall CPEngNWSessionSlotNotifier2::Stop(void)
	?Stop@CPEngPresenceNotifier2@@QAEXXZ @ 168 NONAME ; public: void __thiscall CPEngPresenceNotifier2::Stop(void)
	?StopSearchFromNetwork@CPEngSearchTransaction2@@QAEHXZ @ 169 NONAME ; public: int __thiscall CPEngSearchTransaction2::StopSearchFromNetwork(void)
	?StoreNWPresenceSessionOwnership@CPEngNWSessionSlot2@@QAEHABVTDesC16@@@Z @ 170 NONAME ; public: int __thiscall CPEngNWSessionSlot2::StoreNWPresenceSessionOwnership(class TDesC16 const &)
	?StoreOwnAttribute@CPEngAttributeStore2@@QAEHAAVMPEngPresenceAttrModel2@@H@Z @ 171 NONAME ; public: int __thiscall CPEngAttributeStore2::StoreOwnAttribute(class MPEngPresenceAttrModel2 &,int)
	?SynchronizeContactList@CPEngContactListTransaction2@@QAEHABVTDesC16@@AAVMPEngContactListTransactionObserver2@@@Z @ 172 NONAME ; public: int __thiscall CPEngContactListTransaction2::SynchronizeContactList(class TDesC16 const &,class MPEngContactListTransactionObserver2 &)
	?SynchronizeContactLists@CPEngContactListTransaction2@@QAEHABVMDesC16Array@@AAVMPEngContactListTransactionObserver2@@@Z @ 173 NONAME ; public: int __thiscall CPEngContactListTransaction2::SynchronizeContactLists(class MDesC16Array const &,class MPEngContactListTransactionObserver2 &)
	?TrackedPresenceIDs@CPEngPresenceNotifier2@@QBEABVCPEngTrackedPresenceIDs2@@XZ @ 174 NONAME ; public: class CPEngTrackedPresenceIDs2 const & __thiscall CPEngPresenceNotifier2::TrackedPresenceIDs(void)const 
	?TrackedPresenceIDsCount@CPEngTrackedPresenceIDs2@@QBEHXZ @ 175 NONAME ; public: int __thiscall CPEngTrackedPresenceIDs2::TrackedPresenceIDsCount(void)const 
	?UnLockOwnAttribute@CPEngAttributeStore2@@QAEHAAVMPEngPresenceAttrModel2@@@Z @ 176 NONAME ; public: int __thiscall CPEngAttributeStore2::UnLockOwnAttribute(class MPEngPresenceAttrModel2 &)
	?UnPackL@CPEngNWSessionSlotID2@@QAEXABVTDesC8@@@Z @ 177 NONAME ; public: void __thiscall CPEngNWSessionSlotID2::UnPackL(class TDesC8 const &)
	?UnknownServerContactListsL@CPEngContactListStore2@@QBEABVMDesC16Array@@XZ @ 178 NONAME ; public: class MDesC16Array const & __thiscall CPEngContactListStore2::UnknownServerContactListsL(void)const 
	?UnpackContactIdsL@PEngContactItemExtensionCodec2@@SAXABVTDesC8@@AAVCContactIdArray@@@Z @ 179 NONAME ; public: static void __cdecl PEngContactItemExtensionCodec2::UnpackContactIdsL(class TDesC8 const &,class CContactIdArray &)
	?UserId@CPEngNWSessionSlotID2@@QBE?AVTPtrC16@@XZ @ 180 NONAME ; public: class TPtrC16 __thiscall CPEngNWSessionSlotID2::UserId(void)const 
	?UserResults@CPEngSearchResult2@@QBEABVMDesC16Array@@XZ @ 181 NONAME ; public: class MDesC16Array const & __thiscall CPEngSearchResult2::UserResults(void)const 
	?SynchronizedContactListsL@CPEngContactListStore2@@QBEABVMDesC16Array@@XZ @ 182 NONAME ; public: class MDesC16Array const & __thiscall CPEngContactListStore2::SynchronizedContactListsL(void)const 
	?TrackedPresenceIDs@CPEngPresenceNotifier2@@QAEAAVCPEngTrackedPresenceIDs2@@XZ @ 183 NONAME ; public: class CPEngTrackedPresenceIDs2 & __thiscall CPEngPresenceNotifier2::TrackedPresenceIDs(void)
	?Update@CPEngPresenceNotifier2@@QAEHABVMDesC16Array@@@Z @ 184 NONAME ; public: int __thiscall CPEngPresenceNotifier2::Update(class MDesC16Array const &)
	?Update@CPEngPresenceNotifier2@@QAEHABVMPEngContactList2@@W4TPEngContactListView@@@Z @ 185 NONAME ; public: int __thiscall CPEngPresenceNotifier2::Update(class MPEngContactList2 const &,enum TPEngContactListView)
	?GetNWPresenceSessionSap@CPEngNWSessionSlot2@@QBEHAAVCIMPSSAPSettings@@@Z @ 186 NONAME ; public: int __thiscall CPEngNWSessionSlot2::GetNWPresenceSessionSap(class CIMPSSAPSettings &)const 
	?OpenNWPresenceSession@CPEngNWSessionSlot2@@QAEHABVCIMPSSAPSettings@@AAVMPEngNWSessionOperationObserver2@@@Z @ 187 NONAME ; public: int __thiscall CPEngNWSessionSlot2::OpenNWPresenceSession(class CIMPSSAPSettings const &,class MPEngNWSessionOperationObserver2 &)
	?CSPSessionState@CPEngNWSessionSlotEvent2@@QBE?AW4TPEngNWSessionSlotState@@XZ @ 188 NONAME ; enum TPEngNWSessionSlotState CPEngNWSessionSlotEvent2::CSPSessionState(void) const
	?AddObserver@CPEngReactAuthNotifier@@QAEHAAVMPEngReactAuthObserver@@@Z @ 189 NONAME ; int CPEngReactAuthNotifier::AddObserver(class MPEngReactAuthObserver &)
	?IsActive@CPEngReactAuthNotifier@@QBEHXZ @ 190 NONAME ; int CPEngReactAuthNotifier::IsActive(void) const
	?NewL@CPEngReactAuthNotifier@@SAPAV1@ABVCPEngNWSessionSlotID2@@H@Z @ 191 NONAME ; class CPEngReactAuthNotifier * CPEngReactAuthNotifier::NewL(class CPEngNWSessionSlotID2 const &, int)
	?NewL@CPEngReactAuthStore@@SAPAV1@ABVCPEngNWSessionSlotID2@@H@Z @ 192 NONAME ; class CPEngReactAuthStore * CPEngReactAuthStore::NewL(class CPEngNWSessionSlotID2 const &, int)
	?NewL@CPEngReactAuthTransaction@@SAPAV1@ABVCPEngNWSessionSlotID2@@H@Z @ 193 NONAME ; class CPEngReactAuthTransaction * CPEngReactAuthTransaction::NewL(class CPEngNWSessionSlotID2 const &, int)
	?NewLC@CPEngReactAuthNotifier@@SAPAV1@ABVCPEngNWSessionSlotID2@@H@Z @ 194 NONAME ; class CPEngReactAuthNotifier * CPEngReactAuthNotifier::NewLC(class CPEngNWSessionSlotID2 const &, int)
	?NewLC@CPEngReactAuthStore@@SAPAV1@ABVCPEngNWSessionSlotID2@@H@Z @ 195 NONAME ; class CPEngReactAuthStore * CPEngReactAuthStore::NewLC(class CPEngNWSessionSlotID2 const &, int)
	?NewLC@CPEngReactAuthTransaction@@SAPAV1@ABVCPEngNWSessionSlotID2@@H@Z @ 196 NONAME ; class CPEngReactAuthTransaction * CPEngReactAuthTransaction::NewLC(class CPEngNWSessionSlotID2 const &, int)
	?RemoveObserver@CPEngReactAuthNotifier@@QAEHAAVMPEngReactAuthObserver@@@Z @ 197 NONAME ; int CPEngReactAuthNotifier::RemoveObserver(class MPEngReactAuthObserver &)
	?Stop@CPEngReactAuthNotifier@@QAEXXZ @ 198 NONAME ; void CPEngReactAuthNotifier::Stop(void)
	?AuthorizationReq@CPEngReactAuthStore@@QAEAAVMPEngAuthorizationRequest@@H@Z @ 199 NONAME ; class MPEngAuthorizationRequest & CPEngReactAuthStore::AuthorizationReq(int)
	?AuthorizationReqCount@CPEngReactAuthStore@@QBEHXZ @ 200 NONAME ; int CPEngReactAuthStore::AuthorizationReqCount(void) const
	?CancelPublishReactAuthResponds@CPEngReactAuthTransaction@@QAEXXZ @ 201 NONAME ; void CPEngReactAuthTransaction::CancelPublishReactAuthResponds(void)
	?GetAndLockAuthorizationRespond@CPEngReactAuthStore@@QAEHAAPAVMPEngAuthorizationRespond@@@Z @ 202 NONAME ; int CPEngReactAuthStore::GetAndLockAuthorizationRespond(class MPEngAuthorizationRespond * &)
	?IsPublishReactAuthRespondsActive@CPEngReactAuthTransaction@@QBEHXZ @ 203 NONAME ; int CPEngReactAuthTransaction::IsPublishReactAuthRespondsActive(void) const
	?PendingAuthorizationReq@CPEngReactAuthStore@@QAEAAVMPEngAuthorizationRequest@@H@Z @ 204 NONAME ; class MPEngAuthorizationRequest & CPEngReactAuthStore::PendingAuthorizationReq(int)
	?PendingAuthorizationReqCount@CPEngReactAuthStore@@QBEHXZ @ 205 NONAME ; int CPEngReactAuthStore::PendingAuthorizationReqCount(void) const
	?PublishReactAuthResponds@CPEngReactAuthTransaction@@QAEHAAPAVMPEngAuthorizationRespond@@AAVMPEngReactAuthTransactionObserver@@@Z @ 206 NONAME ; int CPEngReactAuthTransaction::PublishReactAuthResponds(class MPEngAuthorizationRespond * &, class MPEngReactAuthTransactionObserver &)
	?RespondedAuthorization@CPEngReactAuthStore@@QBEABVMPEngAuthorizationStatus@@H@Z @ 207 NONAME ; class MPEngAuthorizationStatus const & CPEngReactAuthStore::RespondedAuthorization(int) const
	?RespondedAuthorizationCount@CPEngReactAuthStore@@QBEHXZ @ 208 NONAME ; int CPEngReactAuthStore::RespondedAuthorizationCount(void) const
	?ServerDeniedAuthorization@CPEngReactAuthStore@@QBEABVMPEngAuthorizationStatus@@H@Z @ 209 NONAME ; class MPEngAuthorizationStatus const & CPEngReactAuthStore::ServerDeniedAuthorization(int) const
	?ServerDeniedAuthorizationCount@CPEngReactAuthStore@@QBEHXZ @ 210 NONAME ; int CPEngReactAuthStore::ServerDeniedAuthorizationCount(void) const
	?Start@CPEngReactAuthNotifier@@QAEHH@Z @ 211 NONAME ; int CPEngReactAuthNotifier::Start(int)
	?ChangeContactListTypeL@CPEngContactListStore2@@QAEXABVTDesC16@@W4TPEngContactListType@@@Z @ 212 NONAME ; void CPEngContactListStore2::ChangeContactListTypeL(class TDesC16 const &, enum TPEngContactListType)
	?GetAndLockCachedAttribute@CPEngAttributeStore2@@QAEHABVTDesC16@@KAAPAVMPEngPresenceAttrModel2@@@Z @ 213 NONAME ; int CPEngAttributeStore2::GetAndLockCachedAttribute(class TDesC16 const &, unsigned long, class MPEngPresenceAttrModel2 * &)
	?StoreCachedAttribute@CPEngAttributeStore2@@QAEHAAVMPEngPresenceAttrModel2@@H@Z @ 214 NONAME ; int CPEngAttributeStore2::StoreCachedAttribute(class MPEngPresenceAttrModel2 &, int)
	?BaseSynchronizeContactLists@CPEngContactListTransaction2@@QAEHAAVMPEngContactListTransactionObserver2@@H@Z @ 215 NONAME ; int CPEngContactListTransaction2::BaseSynchronizeContactLists(class MPEngContactListTransactionObserver2 &, int)

