EXPORTS
	_ZN14TOneDesWrapperC1ERK7TDesC16 @ 1 NONAME
	_ZN14TOneDesWrapperC2ERK7TDesC16 @ 2 NONAME
	_ZN17CAPresenceManager7ReleaseEv @ 3 NONAME
	_ZN17CAPresenceManager9InstanceLEP11MCASettings @ 4 NONAME
	_ZN19TTrackedPresenceIds12InitializeLCER24CPEngTrackedPresenceIDs2 @ 5 NONAME
	_ZN19TTrackedPresenceIds5CloseEv @ 6 NONAME
	_ZN19TTrackedPresenceIdsC1Ev @ 7 NONAME
	_ZN19TTrackedPresenceIdsC2Ev @ 8 NONAME
	_ZN20TContactListsWrapperC1ERK12MDesC16Array @ 9 NONAME
	_ZN20TContactListsWrapperC1Ev @ 10 NONAME
	_ZN20TContactListsWrapperC2ERK12MDesC16Array @ 11 NONAME
	_ZN20TContactListsWrapperC2Ev @ 12 NONAME
	_ZN20TMultiPecListWrapper12InitializeLCER12MDesC16ArrayR22CPEngContactListStore2 @ 13 NONAME
	_ZN20TMultiPecListWrapper5CloseEv @ 14 NONAME
	_ZN20TMultiPecListWrapperC1Ev @ 15 NONAME
	_ZN20TMultiPecListWrapperC2Ev @ 16 NONAME
	_ZN22TOneContactListWrapperC1ERK17MPEngContactList2 @ 17 NONAME
	_ZN22TOneContactListWrapperC2ERK17MPEngContactList2 @ 18 NONAME
	_ZNK14TOneDesWrapper9MdcaCountEv @ 19 NONAME
	_ZNK14TOneDesWrapper9MdcaPointEi @ 20 NONAME
	_ZNK19TTrackedPresenceIds9MdcaCountEv @ 21 NONAME
	_ZNK19TTrackedPresenceIds9MdcaPointEi @ 22 NONAME
	_ZNK20TContactListsWrapper9MdcaCountEv @ 23 NONAME
	_ZNK20TContactListsWrapper9MdcaPointEi @ 24 NONAME
	_ZNK20TMultiPecListWrapper9MdcaCountEv @ 25 NONAME
	_ZNK20TMultiPecListWrapper9MdcaPointEi @ 26 NONAME
	_ZNK22TOneContactListWrapper9MdcaCountEv @ 27 NONAME
	_ZNK22TOneContactListWrapper9MdcaPointEi @ 28 NONAME
	_ZTI14TOneDesWrapper @ 29 NONAME ; #<TI>#
	_ZTI16CCAPresenceError @ 30 NONAME ; #<TI>#
	_ZTI17CCAPresenceErrors @ 31 NONAME ; #<TI>#
	_ZTI18CCAPEngListManager @ 32 NONAME ; #<TI>#
	_ZTI19CCAPEngListObserver @ 33 NONAME ; #<TI>#
	_ZTI20TContactListsWrapper @ 34 NONAME ; #<TI>#
	_ZTI20TMultiPecListWrapper @ 35 NONAME ; #<TI>#
	_ZTI22CCAPEngPresenceManager @ 36 NONAME ; #<TI>#
	_ZTI22TOneContactListWrapper @ 37 NONAME ; #<TI>#
	_ZTV14TOneDesWrapper @ 38 NONAME ; #<VT>#
	_ZTV16CCAPresenceError @ 39 NONAME ; #<VT>#
	_ZTV17CCAPresenceErrors @ 40 NONAME ; #<VT>#
	_ZTV18CCAPEngListManager @ 41 NONAME ; #<VT>#
	_ZTV19CCAPEngListObserver @ 42 NONAME ; #<VT>#
	_ZTV20TContactListsWrapper @ 43 NONAME ; #<VT>#
	_ZTV20TMultiPecListWrapper @ 44 NONAME ; #<VT>#
	_ZTV22CCAPEngPresenceManager @ 45 NONAME ; #<VT>#
	_ZTV22TOneContactListWrapper @ 46 NONAME ; #<VT>#

