EXPORTS
	_ZN22PEngListLibraryFactory19ContactListManagerLERK18CPEngSessionSlotId @ 1 NONAME
	_ZN22PEngListLibraryFactory21AuthorizationManagerLERK18CPEngSessionSlotId @ 2 NONAME
	_ZN22PEngListLibraryFactory22AttributeListsManagerLERK18CPEngSessionSlotId @ 3 NONAME
	_ZN22PEngListLibraryFactory31ContactListTransactionManagerLCERK18CPEngSessionSlotId @ 4 NONAME
	_ZN22PEngListLibraryFactory33AuthorizationTransactionManagerLCERK18CPEngSessionSlotId @ 5 NONAME
	_ZN22PEngListLibraryFactory34AttributeListsTransactionManagerLCERK18CPEngSessionSlotId @ 6 NONAME
	_ZTI19CPEngListLibFactory @ 7 NONAME ; #<TI>#
	_ZTI22CPEngAuthorizationItem @ 8 NONAME ; #<TI>#
	_ZTI24CPEngAuthorizationEngine @ 9 NONAME ; #<TI>#
	_ZTI25CPEngAuthorizationManager @ 10 NONAME ; #<TI>#
	_ZTI25CPEngAuthorizationRequest @ 11 NONAME ; #<TI>#
	_ZTI26CPEngAuthorizationResponse @ 12 NONAME ; #<TI>#
	_ZTI30CPEngAuthorizationTransFactory @ 13 NONAME ; #<TI>#
	_ZTI31CPEngAuthorizationTransactionIn @ 14 NONAME ; #<TI>#
	_ZTI32CPEngAuthorizationTransactionOut @ 15 NONAME ; #<TI>#
	_ZTV19CPEngListLibFactory @ 16 NONAME ; #<VT>#
	_ZTV22CPEngAuthorizationItem @ 17 NONAME ; #<VT>#
	_ZTV24CPEngAuthorizationEngine @ 18 NONAME ; #<VT>#
	_ZTV25CPEngAuthorizationManager @ 19 NONAME ; #<VT>#
	_ZTV25CPEngAuthorizationRequest @ 20 NONAME ; #<VT>#
	_ZTV26CPEngAuthorizationResponse @ 21 NONAME ; #<VT>#
	_ZTV30CPEngAuthorizationTransFactory @ 22 NONAME ; #<VT>#
	_ZTV31CPEngAuthorizationTransactionIn @ 23 NONAME ; #<VT>#
	_ZTV32CPEngAuthorizationTransactionOut @ 24 NONAME ; #<VT>#

