EXPORTS
	??0RPEngMessage@@QAE@ABV0@@Z @ 1 NONAME ; RPEngMessage::RPEngMessage(class RPEngMessage const &)
	??0RPEngMessage@@QAE@ABVRMessage2@@@Z @ 2 NONAME ; RPEngMessage::RPEngMessage(class RMessage2 const &)
	??0RPEngMessage@@QAE@XZ @ 3 NONAME ; RPEngMessage::RPEngMessage(void)
	??0TPEngServerParams@@QAE@ABVTDesC16@@HH@Z @ 4 NONAME ; TPEngServerParams::TPEngServerParams(class TDesC16 const &, int, int)
	??0TPEngServerParams@@QAE@XZ @ 5 NONAME ; TPEngServerParams::TPEngServerParams(void)
	??1RPEngMessage@@QAE@XZ @ 6 NONAME ; RPEngMessage::~RPEngMessage(void)
	??4RPEngMessage@@QAEAAV0@ABV0@@Z @ 7 NONAME ; class RPEngMessage & RPEngMessage::operator=(class RPEngMessage const &)
	?ActiveApplications@CPEngSessionSlotState@@QBEABVMDesC16Array@@XZ @ 8 NONAME ; class MDesC16Array const & CPEngSessionSlotState::ActiveApplications(void) const
	?AppSessSltState@CPEngSessionSlotEvent@@QBE?AW4TPEngNWSessionSlotState@@XZ @ 9 NONAME ; enum TPEngNWSessionSlotState CPEngSessionSlotEvent::AppSessSltState(void) const
	?AppState@CPEngSessionSlotState@@QBE?AW4TPEngNWSessionSlotState@@ABVTDesC16@@@Z @ 10 NONAME ; enum TPEngNWSessionSlotState CPEngSessionSlotState::AppState(class TDesC16 const &) const
	?AppendToDesArray@PEngMessagePacker@@SAHAAVTDes16@@ABVTDesC16@@@Z @ 11 NONAME ; int PEngMessagePacker::AppendToDesArray(class TDes16 &, class TDesC16 const &)
	?ApplicationId@CPEngSessionSlotEvent@@QBEABVTDesC16@@XZ @ 12 NONAME ; class TDesC16 const & CPEngSessionSlotEvent::ApplicationId(void) const
	?ApplicationRegisteredL@CPEngSessionSlotState@@QBEXABVTDesC16@@@Z @ 13 NONAME ; void CPEngSessionSlotState::ApplicationRegisteredL(class TDesC16 const &) const
	?AsCommandLine@TPEngServerParams@@QBE?AVTPtrC16@@XZ @ 14 NONAME ; class TPtrC16 TPEngServerParams::AsCommandLine(void) const
	?Client@RPEngMessage@@QBEHAAVRThread@@W4TOwnerType@@@Z @ 15 NONAME ; int RPEngMessage::Client(class RThread &, enum TOwnerType) const
	?CloneL@CPEngSessionSlotId@@QBEPAV1@XZ @ 16 NONAME ; class CPEngSessionSlotId * CPEngSessionSlotId::CloneL(void) const
	?CloneLC@CPEngSessionSlotId@@QBEPAV1@XZ @ 17 NONAME ; class CPEngSessionSlotId * CPEngSessionSlotId::CloneLC(void) const
	?CommitLastUpdate@CPEngSessionSlotState@@QAEXXZ @ 18 NONAME ; void CPEngSessionSlotState::CommitLastUpdate(void)
	?Complete@RPEngMessage@@QBEXH@Z @ 19 NONAME ; void RPEngMessage::Complete(int) const
	?ConnectServer@PEngServerStarter@@SAHAAVRSessionBase@@ABVTDesC16@@ABVTVersion@@H1HH@Z @ 20 NONAME ; int PEngServerStarter::ConnectServer(class RSessionBase &, class TDesC16 const &, class TVersion const &, int, class TDesC16 const &, int, int)
	?CopyL@CPEngSessionSlotId@@QAEXABV1@@Z @ 21 NONAME ; void CPEngSessionSlotId::CopyL(class CPEngSessionSlotId const &)
	?DesArrayCount@PEngMessagePacker@@SAHABVTDesC16@@@Z @ 22 NONAME ; int PEngMessagePacker::DesArrayCount(class TDesC16 const &)
	?DesArrayPackageSize@PEngMessagePacker@@SAHABVMDesC16Array@@@Z @ 23 NONAME ; int PEngMessagePacker::DesArrayPackageSize(class MDesC16Array const &)
	?DesArrayPackageSize@PEngMessagePacker@@SAHABVTDesC16@@@Z @ 24 NONAME ; int PEngMessagePacker::DesArrayPackageSize(class TDesC16 const &)
	?DesLength@RPEngMessage@@QBEHH@Z @ 25 NONAME ; int RPEngMessage::DesLength(int) const
	?DesMaxLength@RPEngMessage@@QBEHH@Z @ 26 NONAME ; int RPEngMessage::DesMaxLength(int) const
	?Event@CPEngSessionSlotEvent@@QBE?AW4TPEngNWSessionSlotEvent@@XZ @ 27 NONAME ; enum TPEngNWSessionSlotEvent CPEngSessionSlotEvent::Event(void) const
	?EventDesc@CPEngSessionSlotEvent@@QBEABVTDesC16@@XZ @ 28 NONAME ; class TDesC16 const & CPEngSessionSlotEvent::EventDesc(void) const
	?EventInt@CPEngSessionSlotEvent@@QBEHXZ @ 29 NONAME ; int CPEngSessionSlotEvent::EventInt(void) const
	?ExternalizeL@CPEngSessionSlotEvent@@QBEXAAVRWriteStream@@H@Z @ 30 NONAME ; void CPEngSessionSlotEvent::ExternalizeL(class RWriteStream &, int) const
	?ExternalizeL@CPEngSessionSlotId@@QBEXAAVRWriteStream@@@Z @ 31 NONAME ; void CPEngSessionSlotId::ExternalizeL(class RWriteStream &) const
	?ExternalizeL@CPEngSessionSlotState@@QBEXAAVRWriteStream@@W4TPEngDataSelection@@@Z @ 32 NONAME ; void CPEngSessionSlotState::ExternalizeL(class RWriteStream &, enum TPEngDataSelection) const
	?FullCloneLC@CPEngTransactionStatus@@QBEPAV1@XZ @ 33 NONAME ; class CPEngTransactionStatus * CPEngTransactionStatus::FullCloneLC(void) const
	?Function@RPEngMessage@@QBEHXZ @ 34 NONAME ; int RPEngMessage::Function(void) const
	?GlobSessSltState@CPEngSessionSlotEvent@@QBE?AW4TPEngNWSessionSlotState@@XZ @ 35 NONAME ; enum TPEngNWSessionSlotState CPEngSessionSlotEvent::GlobSessSltState(void) const
	?ImportStatusFrom@CPEngTransactionStatus@@QAEXAAV1@@Z @ 36 NONAME ; void CPEngTransactionStatus::ImportStatusFrom(class CPEngTransactionStatus &)
	?InitFromCmdLine@TPEngServerParams@@QAEHXZ @ 37 NONAME ; int TPEngServerParams::InitFromCmdLine(void)
	?Int0@RPEngMessage@@QBEHXZ @ 38 NONAME ; int RPEngMessage::Int0(void) const
	?Int1@RPEngMessage@@QBEHXZ @ 39 NONAME ; int RPEngMessage::Int1(void) const
	?Int2@RPEngMessage@@QBEHXZ @ 40 NONAME ; int RPEngMessage::Int2(void) const
	?Int3@RPEngMessage@@QBEHXZ @ 41 NONAME ; int RPEngMessage::Int3(void) const
	?InternalizeL@CPEngSessionSlotEvent@@QAEXAAVRReadStream@@H@Z @ 42 NONAME ; void CPEngSessionSlotEvent::InternalizeL(class RReadStream &, int)
	?InternalizeL@CPEngSessionSlotId@@QAEXAAVRReadStream@@@Z @ 43 NONAME ; void CPEngSessionSlotId::InternalizeL(class RReadStream &)
	?InternalizeL@CPEngSessionSlotState@@QAEXAAVRReadStream@@W4TPEngDataSelection@@@Z @ 44 NONAME ; void CPEngSessionSlotState::InternalizeL(class RReadStream &, enum TPEngDataSelection)
	?Kill@RPEngMessage@@QBEXH@Z @ 45 NONAME ; void RPEngMessage::Kill(int) const
	?LaunchServer@PEngServerStarter@@SAHABVTDesC16@@0HH@Z @ 46 NONAME ; int PEngServerStarter::LaunchServer(class TDesC16 const &, class TDesC16 const &, int, int)
	?Match@CPEngSessionSlotId@@QBEHABV1@@Z @ 47 NONAME ; int CPEngSessionSlotId::Match(class CPEngSessionSlotId const &) const
	?MessageValid@RPEngMessage@@QBEHXZ @ 48 NONAME ; int RPEngMessage::MessageValid(void) const
	?NewL@CPEngSessionSlotEvent@@SAPAV1@XZ @ 49 NONAME ; class CPEngSessionSlotEvent * CPEngSessionSlotEvent::NewL(void)
	?NewL@CPEngSessionSlotId@@SAPAV1@XZ @ 50 NONAME ; class CPEngSessionSlotId * CPEngSessionSlotId::NewL(void)
	?NewL@CPEngSessionSlotState@@SAPAV1@XZ @ 51 NONAME ; class CPEngSessionSlotState * CPEngSessionSlotState::NewL(void)
	?NewL@CPEngTransactionStatus@@SAPAV1@XZ @ 52 NONAME ; class CPEngTransactionStatus * CPEngTransactionStatus::NewL(void)
	?NewLC@CPEngSessionSlotEvent@@SAPAV1@XZ @ 53 NONAME ; class CPEngSessionSlotEvent * CPEngSessionSlotEvent::NewLC(void)
	?NewLC@CPEngSessionSlotId@@SAPAV1@XZ @ 54 NONAME ; class CPEngSessionSlotId * CPEngSessionSlotId::NewLC(void)
	?NewLC@CPEngSessionSlotState@@SAPAV1@XZ @ 55 NONAME ; class CPEngSessionSlotState * CPEngSessionSlotState::NewLC(void)
	?PackDataL@CPEngSessionSlotState@@QBEXW4TPEngDataSelection@@AAVRBuf8@@@Z @ 56 NONAME ; void CPEngSessionSlotState::PackDataL(enum TPEngDataSelection, class RBuf8 &) const
	?PackDataLC@CPEngSessionSlotState@@QBEPAVHBufC8@@W4TPEngDataSelection@@@Z @ 57 NONAME ; class HBufC8 * CPEngSessionSlotState::PackDataLC(enum TPEngDataSelection) const
	?PackDesArray@PEngMessagePacker@@SAHAAVTDes16@@ABVMDesC16Array@@@Z @ 58 NONAME ; int PEngMessagePacker::PackDesArray(class TDes16 &, class MDesC16Array const &)
	?PackDesArrayL@PEngMessagePacker@@SAPAVHBufC16@@ABVMDesC16Array@@@Z @ 59 NONAME ; class HBufC16 * PEngMessagePacker::PackDesArrayL(class MDesC16Array const &)
	?PackEventL@CPEngSessionSlotEvent@@QAEXAAVRBuf8@@@Z @ 60 NONAME ; void CPEngSessionSlotEvent::PackEventL(class RBuf8 &)
	?PackEventLC@CPEngSessionSlotEvent@@QAEPAVHBufC8@@XZ @ 61 NONAME ; class HBufC8 * CPEngSessionSlotEvent::PackEventLC(void)
	?PackEventPartLC@CPEngSessionSlotEvent@@QAEPAVHBufC8@@XZ @ 62 NONAME ; class HBufC8 * CPEngSessionSlotEvent::PackEventPartLC(void)
	?PackLC@CPEngSessionSlotId@@QBEPAVHBufC8@@XZ @ 63 NONAME ; class HBufC8 * CPEngSessionSlotId::PackLC(void) const
	?PackOneDesAsArray@PEngMessagePacker@@SAHAAVTDes16@@ABVTDesC16@@@Z @ 64 NONAME ; int PEngMessagePacker::PackOneDesAsArray(class TDes16 &, class TDesC16 const &)
	?PackOneDesAsArrayL@PEngMessagePacker@@SAPAVHBufC16@@ABVTDesC16@@@Z @ 65 NONAME ; class HBufC16 * PEngMessagePacker::PackOneDesAsArrayL(class TDesC16 const &)
	?PackResultsL@CPEngTransactionStatus@@QBEPAVHBufC8@@XZ @ 66 NONAME ; class HBufC8 * CPEngTransactionStatus::PackResultsL(void) const
	?PackTIntArrayL@PEngMessagePacker@@SAPAVHBufC16@@ABV?$RArray@H@@@Z @ 67 NONAME ; class HBufC16 * PEngMessagePacker::PackTIntArrayL(class RArray<int> const &)
	?Panic@RPEngMessage@@QBEXABVTDesC16@@H@Z @ 68 NONAME ; void RPEngMessage::Panic(class TDesC16 const &, int) const
	?Param1@TPEngServerParams@@QBEHXZ @ 69 NONAME ; int TPEngServerParams::Param1(void) const
	?Param2@TPEngServerParams@@QBEHXZ @ 70 NONAME ; int TPEngServerParams::Param2(void) const
	?ReadDescriptorArrayCountL@RPEngMessage@@QBEHH@Z @ 71 NONAME ; int RPEngMessage::ReadDescriptorArrayCountL(int) const
	?ReadDescriptorArrayL@RPEngMessage@@QBEXHAAVCDesC16Array@@@Z @ 72 NONAME ; void RPEngMessage::ReadDescriptorArrayL(int, class CDesC16Array &) const
	?ReadDescriptorArrayLC@RPEngMessage@@QBEPAVHBufC16@@HAAVCPtrC16Array@@@Z @ 73 NONAME ; class HBufC16 * RPEngMessage::ReadDescriptorArrayLC(int, class CPtrC16Array &) const
	?ReadFirstDescriptorFromArrayL@RPEngMessage@@QBEPAVHBufC16@@H@Z @ 74 NONAME ; class HBufC16 * RPEngMessage::ReadFirstDescriptorFromArrayL(int) const
	?ReadOneDescriptor16L@RPEngMessage@@QBEPAVHBufC16@@H@Z @ 75 NONAME ; class HBufC16 * RPEngMessage::ReadOneDescriptor16L(int) const
	?ReadOneDescriptor16LC@RPEngMessage@@QBEPAVHBufC16@@H@Z @ 76 NONAME ; class HBufC16 * RPEngMessage::ReadOneDescriptor16LC(int) const
	?ReadOneDescriptor8L@RPEngMessage@@QBEPAVHBufC8@@H@Z @ 77 NONAME ; class HBufC8 * RPEngMessage::ReadOneDescriptor8L(int) const
	?ReadOneDescriptor8LC@RPEngMessage@@QBEPAVHBufC8@@H@Z @ 78 NONAME ; class HBufC8 * RPEngMessage::ReadOneDescriptor8LC(int) const
	?ReadOneDescriptor@RPEngMessage@@QBEHHAAPAVHBufC16@@@Z @ 79 NONAME ; int RPEngMessage::ReadOneDescriptor(int, class HBufC16 * &) const
	?ReadOneDescriptor@RPEngMessage@@QBEHHAAPAVHBufC8@@@Z @ 80 NONAME ; int RPEngMessage::ReadOneDescriptor(int, class HBufC8 * &) const
	?ReadOneDescriptorL@RPEngMessage@@QBEXHAAVRBuf16@@@Z @ 81 NONAME ; void RPEngMessage::ReadOneDescriptorL(int, class RBuf16 &) const
	?ReadOneDescriptorL@RPEngMessage@@QBEXHAAVRBuf8@@@Z @ 82 NONAME ; void RPEngMessage::ReadOneDescriptorL(int, class RBuf8 &) const
	?RegisteredApplications@CPEngSessionSlotState@@QBEABVMDesC16Array@@XZ @ 83 NONAME ; class MDesC16Array const & CPEngSessionSlotState::RegisteredApplications(void) const
	?RenameMainThread@TPEngServerParams@@QAEXABVTDesC16@@@Z @ 84 NONAME ; void TPEngServerParams::RenameMainThread(class TDesC16 const &)
	?Reset@CPEngSessionSlotId@@QAEXXZ @ 85 NONAME ; void CPEngSessionSlotId::Reset(void)
	?Reset@CPEngTransactionStatus@@QAEXXZ @ 86 NONAME ; void CPEngTransactionStatus::Reset(void)
	?ResetTIntArray@PEngMessagePacker@@SAXAAVTDes16@@@Z @ 87 NONAME ; void PEngMessagePacker::ResetTIntArray(class TDes16 &)
	?RollBackLastUpdate@CPEngSessionSlotState@@QAEXXZ @ 88 NONAME ; void CPEngSessionSlotState::RollBackLastUpdate(void)
	?ServerName@TPEngServerParams@@QBEABVTDesC16@@XZ @ 89 NONAME ; class TDesC16 const & TPEngServerParams::ServerName(void) const
	?ServiceAddress@CPEngSessionSlotId@@QBE?AVTPtrC16@@XZ @ 90 NONAME ; class TPtrC16 CPEngSessionSlotId::ServiceAddress(void) const
	?SessionSlotId@CPEngSessionSlotState@@QBEAAVCPEngSessionSlotId@@XZ @ 91 NONAME ; class CPEngSessionSlotId & CPEngSessionSlotState::SessionSlotId(void) const
	?SessionSlotIndentification@CPEngSessionSlotEvent@@QBEABVCPEngSessionSlotId@@XZ @ 92 NONAME ; class CPEngSessionSlotId const & CPEngSessionSlotEvent::SessionSlotIndentification(void) const
	?SessionSlotState@CPEngSessionSlotState@@QBE?AW4TPEngNWSessionSlotState@@XZ @ 93 NONAME ; enum TPEngNWSessionSlotState CPEngSessionSlotState::SessionSlotState(void) const
	?SetAppIdL@CPEngSessionSlotEvent@@QAEXABVTDesC16@@@Z @ 94 NONAME ; void CPEngSessionSlotEvent::SetAppIdL(class TDesC16 const &)
	?SetAppSessSltState@CPEngSessionSlotEvent@@QAEXW4TPEngNWSessionSlotState@@@Z @ 95 NONAME ; void CPEngSessionSlotEvent::SetAppSessSltState(enum TPEngNWSessionSlotState)
	?SetEventDesL@CPEngSessionSlotEvent@@QAEXABVTDesC16@@@Z @ 96 NONAME ; void CPEngSessionSlotEvent::SetEventDesL(class TDesC16 const &)
	?SetEventInt@CPEngSessionSlotEvent@@QAEXH@Z @ 97 NONAME ; void CPEngSessionSlotEvent::SetEventInt(int)
	?SetGlobSessSltState@CPEngSessionSlotEvent@@QAEXW4TPEngNWSessionSlotState@@@Z @ 98 NONAME ; void CPEngSessionSlotEvent::SetGlobSessSltState(enum TPEngNWSessionSlotState)
	?SetServiceAddressL@CPEngSessionSlotId@@QAEXABVTDesC16@@@Z @ 99 NONAME ; void CPEngSessionSlotId::SetServiceAddressL(class TDesC16 const &)
	?SetSessSltEvent@CPEngSessionSlotEvent@@QAEXW4TPEngNWSessionSlotEvent@@@Z @ 100 NONAME ; void CPEngSessionSlotEvent::SetSessSltEvent(enum TPEngNWSessionSlotEvent)
	?SetSessionSlotId@CPEngSessionSlotEvent@@QAEXPAVCPEngSessionSlotId@@H@Z @ 101 NONAME ; void CPEngSessionSlotEvent::SetSessionSlotId(class CPEngSessionSlotId *, int)
	?SetSessionSlotId@CPEngSessionSlotState@@QAEXAAVCPEngSessionSlotId@@H@Z @ 102 NONAME ; void CPEngSessionSlotState::SetSessionSlotId(class CPEngSessionSlotId &, int)
	?SetSessionSlotStateClosed@CPEngSessionSlotState@@QAEXXZ @ 103 NONAME ; void CPEngSessionSlotState::SetSessionSlotStateClosed(void)
	?SetUserIdL@CPEngSessionSlotId@@QAEXABVTDesC16@@@Z @ 104 NONAME ; void CPEngSessionSlotId::SetUserIdL(class TDesC16 const &)
	?Signal@TPEngServerParams@@QAEXXZ @ 105 NONAME ; void TPEngServerParams::Signal(void)
	?Size@CPEngSessionSlotEvent@@QBEHH@Z @ 106 NONAME ; int CPEngSessionSlotEvent::Size(int) const
	?Size@CPEngSessionSlotId@@QBEHXZ @ 107 NONAME ; int CPEngSessionSlotId::Size(void) const
	?Size@CPEngSessionSlotState@@QBEHW4TPEngDataSelection@@@Z @ 108 NONAME ; int CPEngSessionSlotState::Size(enum TPEngDataSelection) const
	?TIntArrayCount@PEngMessagePacker@@SAHABVTDesC16@@@Z @ 109 NONAME ; int PEngMessagePacker::TIntArrayCount(class TDesC16 const &)
	?TIntArrayPackageSize@PEngMessagePacker@@SAHH@Z @ 110 NONAME ; int PEngMessagePacker::TIntArrayPackageSize(int)
	?TIntFromArray@PEngMessagePacker@@SAHABVTDesC16@@H@Z @ 111 NONAME ; int PEngMessagePacker::TIntFromArray(class TDesC16 const &, int)
	?Terminate@RPEngMessage@@QBEXH@Z @ 112 NONAME ; void RPEngMessage::Terminate(int) const
	?UnPackL@CPEngSessionSlotId@@QAEXABVTDesC8@@@Z @ 113 NONAME ; void CPEngSessionSlotId::UnPackL(class TDesC8 const &)
	?UnpackDataL@CPEngSessionSlotState@@QAEXABVTDesC8@@W4TPEngDataSelection@@@Z @ 114 NONAME ; void CPEngSessionSlotState::UnpackDataL(class TDesC8 const &, enum TPEngDataSelection)
	?UnpackDesArrayL@PEngMessagePacker@@SAHABVTDesC16@@AAVCDesC16Array@@@Z @ 115 NONAME ; int PEngMessagePacker::UnpackDesArrayL(class TDesC16 const &, class CDesC16Array &)
	?UnpackDesArrayL@PEngMessagePacker@@SAHABVTDesC16@@AAVCPtrC16Array@@@Z @ 116 NONAME ; int PEngMessagePacker::UnpackDesArrayL(class TDesC16 const &, class CPtrC16Array &)
	?UnpackDesArrayLC@PEngMessagePacker@@SAPAVCDesC16Array@@ABVTDesC16@@@Z @ 117 NONAME ; class CDesC16Array * PEngMessagePacker::UnpackDesArrayLC(class TDesC16 const &)
	?UnpackEventL@CPEngSessionSlotEvent@@QAEXABVTDesC8@@@Z @ 118 NONAME ; void CPEngSessionSlotEvent::UnpackEventL(class TDesC8 const &)
	?UnpackEventPartL@CPEngSessionSlotEvent@@QAEXABVTDesC8@@@Z @ 119 NONAME ; void CPEngSessionSlotEvent::UnpackEventPartL(class TDesC8 const &)
	?UnpackFirstDesFromArrayL@PEngMessagePacker@@SAPAVHBufC16@@ABVTDesC16@@@Z @ 120 NONAME ; class HBufC16 * PEngMessagePacker::UnpackFirstDesFromArrayL(class TDesC16 const &)
	?UnpackResultsL@CPEngTransactionStatus@@QAEXABVTDesC8@@@Z @ 121 NONAME ; void CPEngTransactionStatus::UnpackResultsL(class TDesC8 const &)
	?UpdateAndCommitStateL@CPEngSessionSlotState@@QAEHABVCPEngSessionSlotEvent@@@Z @ 122 NONAME ; int CPEngSessionSlotState::UpdateAndCommitStateL(class CPEngSessionSlotEvent const &)
	?UpdateStateL@CPEngSessionSlotState@@QAEHABVCPEngSessionSlotEvent@@@Z @ 123 NONAME ; int CPEngSessionSlotState::UpdateStateL(class CPEngSessionSlotEvent const &)
	?UserId@CPEngSessionSlotId@@QBE?AVTPtrC16@@XZ @ 124 NONAME ; class TPtrC16 CPEngSessionSlotId::UserId(void) const
	?WriteDescriptorArrayL@RPEngMessage@@QBEXHABVMDesC16Array@@@Z @ 125 NONAME ; void RPEngMessage::WriteDescriptorArrayL(int, class MDesC16Array const &) const
	?WriteLog@PEngLogger@@SAXV?$TRefByValue@$$CBVTDesC16@@@@ZZ @ 126 NONAME ; void PEngLogger::WriteLog(class TRefByValue<class TDesC16 const >, ...)
	?WriteOneDescriptor@RPEngMessage@@QBEHHABVTDesC16@@H@Z @ 127 NONAME ; int RPEngMessage::WriteOneDescriptor(int, class TDesC16 const &, int) const
	?WriteOneDescriptor@RPEngMessage@@QBEHHABVTDesC8@@H@Z @ 128 NONAME ; int RPEngMessage::WriteOneDescriptor(int, class TDesC8 const &, int) const
	?WriteOneDescriptorL@RPEngMessage@@QBEXHABVTDesC16@@H@Z @ 129 NONAME ; void RPEngMessage::WriteOneDescriptorL(int, class TDesC16 const &, int) const
	?WriteOneDescriptorL@RPEngMessage@@QBEXHABVTDesC8@@H@Z @ 130 NONAME ; void RPEngMessage::WriteOneDescriptorL(int, class TDesC8 const &, int) const
	?WriteTIntArrayL@RPEngMessage@@QBEXHAAV?$RArray@H@@@Z @ 131 NONAME ; void RPEngMessage::WriteTIntArrayL(int, class RArray<int> &) const

