EXPORTS
	??0RPEngManagerClient@@QAE@XZ @ 1 NONAME ; public: __thiscall RPEngManagerClient::RPEngManagerClient(void)
	??0RPEngSessionHolder@@QAE@XZ @ 2 NONAME ; public: __thiscall RPEngSessionHolder::RPEngSessionHolder(void)
	??0RPEngTransferClient@@QAE@XZ @ 3 NONAME ; public: __thiscall RPEngTransferClient::RPEngTransferClient(void)
	??1RPEngManagerClient@@QAE@XZ @ 4 NONAME ; public: __thiscall RPEngManagerClient::~RPEngManagerClient(void)
	??1RPEngSessionHolder@@QAE@XZ @ 5 NONAME ; public: __thiscall RPEngSessionHolder::~RPEngSessionHolder(void)
	??1RPEngTransferClient@@QAE@XZ @ 6 NONAME ; public: __thiscall RPEngTransferClient::~RPEngTransferClient(void)
	?Attach@RPEngSessionHolder@@QAEHABVTDesC16@@@Z @ 7 NONAME ; public: int __thiscall RPEngSessionHolder::Attach(class TDesC16 const &)
	?Attach@RPEngSessionHolder@@QAEHXZ @ 8 NONAME ; public: int __thiscall RPEngSessionHolder::Attach(void)
	?CancelDetach@RPEngSessionHolder@@QAEXXZ @ 9 NONAME ; public: void __thiscall RPEngSessionHolder::CancelDetach(void)
	?CancelLogIn@RPEngSessionHolder@@QAEXXZ @ 10 NONAME ; public: void __thiscall RPEngSessionHolder::CancelLogIn(void)
	?CancelLogOut@RPEngSessionHolder@@QAEXXZ @ 11 NONAME ; public: void __thiscall RPEngSessionHolder::CancelLogOut(void)
	?CancelUpdateData@RPEngTransferClient@@QAEXXZ @ 12 NONAME ; public: void __thiscall RPEngTransferClient::CancelUpdateData(void)
	?Close@RPEngManagerClient@@QAEXXZ @ 13 NONAME ; public: void __thiscall RPEngManagerClient::Close(void)
	?Close@RPEngSessionHolder@@QAEXXZ @ 14 NONAME ; public: void __thiscall RPEngSessionHolder::Close(void)
	?Close@RPEngTransferClient@@QAEXXZ @ 15 NONAME ; public: void __thiscall RPEngTransferClient::Close(void)
	?Connect@RPEngManagerClient@@QAEHXZ @ 16 NONAME ; public: int __thiscall RPEngManagerClient::Connect(void)
	?Connect@RPEngSessionHolder@@QAEHABVTDesC8@@ABVTDesC16@@AAVRPEngManagerClient@@@Z @ 17 NONAME ; public: int __thiscall RPEngSessionHolder::Connect(class TDesC8 const &,class TDesC16 const &,class RPEngManagerClient &)
	?Connect@RPEngTransferClient@@QAEHABVTDesC8@@ABVTDesC16@@AAVRPEngManagerClient@@@Z @ 18 NONAME ; public: int __thiscall RPEngTransferClient::Connect(class TDesC8 const &,class TDesC16 const &,class RPEngManagerClient &)
	?Detach@RPEngSessionHolder@@QAEHAAVTRequestStatus@@@Z @ 19 NONAME ; public: int __thiscall RPEngSessionHolder::Detach(class TRequestStatus &)
	?FetchLastRequestResult@RPEngTransferClient@@QAEHAAVTDes8@@@Z @ 20 NONAME ; public: int __thiscall RPEngTransferClient::FetchLastRequestResult(class TDes8 &)
	?ForceLogOut@RPEngSessionHolder@@QAEHAAVTRequestStatus@@@Z @ 21 NONAME ; public: int __thiscall RPEngSessionHolder::ForceLogOut(class TRequestStatus &)
	?GetServiceTree@RPEngSessionHolder@@QAEHAAVTPEngWVCspServicesTree2@@@Z @ 22 NONAME ; public: int __thiscall RPEngSessionHolder::GetServiceTree(class TPEngWVCspServicesTree2 &)
	?LeaveAlive@RPEngSessionHolder@@QAEHABVTDesC16@@@Z @ 23 NONAME ; public: int __thiscall RPEngSessionHolder::LeaveAlive(class TDesC16 const &)
	?LogIn@RPEngSessionHolder@@QAEHABVTDesC8@@AAVTRequestStatus@@@Z @ 24 NONAME ; public: int __thiscall RPEngSessionHolder::LogIn(class TDesC8 const &,class TRequestStatus &)
	?LogInData@RPEngSessionHolder@@QAEHAAPAVHBufC8@@@Z @ 25 NONAME ; public: int __thiscall RPEngSessionHolder::LogInData(class HBufC8 * &)
	?UpdateData@RPEngTransferClient@@QAEHHABVTDesC16@@AAVTRequestStatus@@@Z @ 26 NONAME ; public: int __thiscall RPEngTransferClient::UpdateData(int,class TDesC16 const &,class TRequestStatus &)

