EXPORTS
	_ZN10PEngLogger8WriteLogE11TRefByValueIK7TDesC16Ez @ 1 NONAME
	_ZN12RPEngMessageC1ERK9RMessage2 @ 2 NONAME
	_ZN12RPEngMessageC1ERKS_ @ 3 NONAME
	_ZN12RPEngMessageC1Ev @ 4 NONAME
	_ZN12RPEngMessageC2ERK9RMessage2 @ 5 NONAME
	_ZN12RPEngMessageC2ERKS_ @ 6 NONAME
	_ZN12RPEngMessageC2Ev @ 7 NONAME
	_ZN12RPEngMessageD1Ev @ 8 NONAME
	_ZN12RPEngMessageD2Ev @ 9 NONAME
	_ZN12RPEngMessageaSERKS_ @ 10 NONAME
	_ZN17PEngMessagePacker12PackDesArrayER6TDes16RK12MDesC16Array @ 11 NONAME
	_ZN17PEngMessagePacker13DesArrayCountERK7TDesC16 @ 12 NONAME
	_ZN17PEngMessagePacker13PackDesArrayLERK12MDesC16Array @ 13 NONAME
	_ZN17PEngMessagePacker13TIntFromArrayERK7TDesC16i @ 14 NONAME
	_ZN17PEngMessagePacker14PackTIntArrayLERK6RArrayIiE @ 15 NONAME
	_ZN17PEngMessagePacker14ResetTIntArrayER6TDes16 @ 16 NONAME
	_ZN17PEngMessagePacker14TIntArrayCountERK7TDesC16 @ 17 NONAME
	_ZN17PEngMessagePacker15UnpackDesArrayLERK7TDesC16R12CDesC16Array @ 18 NONAME
	_ZN17PEngMessagePacker15UnpackDesArrayLERK7TDesC16R12CPtrC16Array @ 19 NONAME
	_ZN17PEngMessagePacker16AppendToDesArrayER6TDes16RK7TDesC16 @ 20 NONAME
	_ZN17PEngMessagePacker16UnpackDesArrayLCERK7TDesC16 @ 21 NONAME
	_ZN17PEngMessagePacker17PackOneDesAsArrayER6TDes16RK7TDesC16 @ 22 NONAME
	_ZN17PEngMessagePacker18PackOneDesAsArrayLERK7TDesC16 @ 23 NONAME
	_ZN17PEngMessagePacker19DesArrayPackageSizeERK12MDesC16Array @ 24 NONAME
	_ZN17PEngMessagePacker19DesArrayPackageSizeERK7TDesC16 @ 25 NONAME
	_ZN17PEngMessagePacker20TIntArrayPackageSizeEi @ 26 NONAME
	_ZN17PEngMessagePacker24UnpackFirstDesFromArrayLERK7TDesC16 @ 27 NONAME
	_ZN17PEngServerStarter12LaunchServerERK7TDesC16S2_ii @ 28 NONAME
	_ZN17PEngServerStarter13ConnectServerER12RSessionBaseRK7TDesC16RK8TVersioniS4_ii @ 29 NONAME
	_ZN17TPEngServerParams15InitFromCmdLineEv @ 30 NONAME
	_ZN17TPEngServerParams16RenameMainThreadERK7TDesC16 @ 31 NONAME
	_ZN17TPEngServerParams6SignalEv @ 32 NONAME
	_ZN17TPEngServerParamsC1ERK7TDesC16ii @ 33 NONAME
	_ZN17TPEngServerParamsC1Ev @ 34 NONAME
	_ZN17TPEngServerParamsC2ERK7TDesC16ii @ 35 NONAME
	_ZN17TPEngServerParamsC2Ev @ 36 NONAME
	_ZN18CPEngSessionSlotId10SetUserIdLERK7TDesC16 @ 37 NONAME
	_ZN18CPEngSessionSlotId12InternalizeLER11RReadStream @ 38 NONAME
	_ZN18CPEngSessionSlotId18SetServiceAddressLERK7TDesC16 @ 39 NONAME
	_ZN18CPEngSessionSlotId4NewLEv @ 40 NONAME
	_ZN18CPEngSessionSlotId5CopyLERKS_ @ 41 NONAME
	_ZN18CPEngSessionSlotId5NewLCEv @ 42 NONAME
	_ZN18CPEngSessionSlotId5ResetEv @ 43 NONAME
	_ZN18CPEngSessionSlotId7UnPackLERK6TDesC8 @ 44 NONAME
	_ZN21CPEngSessionSlotEvent10PackEventLER5RBuf8 @ 45 NONAME
	_ZN21CPEngSessionSlotEvent11PackEventLCEv @ 46 NONAME
	_ZN21CPEngSessionSlotEvent11SetEventIntEi @ 47 NONAME
	_ZN21CPEngSessionSlotEvent12InternalizeLER11RReadStreami @ 48 NONAME
	_ZN21CPEngSessionSlotEvent12SetEventDesLERK7TDesC16 @ 49 NONAME
	_ZN21CPEngSessionSlotEvent12UnpackEventLERK6TDesC8 @ 50 NONAME
	_ZN21CPEngSessionSlotEvent15PackEventPartLCEv @ 51 NONAME
	_ZN21CPEngSessionSlotEvent15SetSessSltEventE23TPEngNWSessionSlotEvent @ 52 NONAME
	_ZN21CPEngSessionSlotEvent16SetSessionSlotIdEP18CPEngSessionSlotIdi @ 53 NONAME
	_ZN21CPEngSessionSlotEvent16UnpackEventPartLERK6TDesC8 @ 54 NONAME
	_ZN21CPEngSessionSlotEvent18SetAppSessSltStateE23TPEngNWSessionSlotState @ 55 NONAME
	_ZN21CPEngSessionSlotEvent19SetGlobSessSltStateE23TPEngNWSessionSlotState @ 56 NONAME
	_ZN21CPEngSessionSlotEvent4NewLEv @ 57 NONAME
	_ZN21CPEngSessionSlotEvent5NewLCEv @ 58 NONAME
	_ZN21CPEngSessionSlotEvent9SetAppIdLERK7TDesC16 @ 59 NONAME
	_ZN21CPEngSessionSlotState11UnpackDataLERK6TDesC818TPEngDataSelection @ 60 NONAME
	_ZN21CPEngSessionSlotState12InternalizeLER11RReadStream18TPEngDataSelection @ 61 NONAME
	_ZN21CPEngSessionSlotState12UpdateStateLERK21CPEngSessionSlotEvent @ 62 NONAME
	_ZN21CPEngSessionSlotState16CommitLastUpdateEv @ 63 NONAME
	_ZN21CPEngSessionSlotState16SetSessionSlotIdER18CPEngSessionSlotIdi @ 64 NONAME
	_ZN21CPEngSessionSlotState18RollBackLastUpdateEv @ 65 NONAME
	_ZN21CPEngSessionSlotState21UpdateAndCommitStateLERK21CPEngSessionSlotEvent @ 66 NONAME
	_ZN21CPEngSessionSlotState25SetSessionSlotStateClosedEv @ 67 NONAME
	_ZN21CPEngSessionSlotState4NewLEv @ 68 NONAME
	_ZN21CPEngSessionSlotState5NewLCEv @ 69 NONAME
	_ZN22CPEngTransactionStatus14UnpackResultsLERK6TDesC8 @ 70 NONAME
	_ZN22CPEngTransactionStatus16ImportStatusFromERS_ @ 71 NONAME
	_ZN22CPEngTransactionStatus4NewLEv @ 72 NONAME
	_ZN22CPEngTransactionStatus5ResetEv @ 73 NONAME
	_ZNK12RPEngMessage12DesMaxLengthEi @ 74 NONAME
	_ZNK12RPEngMessage12MessageValidEv @ 75 NONAME
	_ZNK12RPEngMessage15WriteTIntArrayLEiR6RArrayIiE @ 76 NONAME
	_ZNK12RPEngMessage17ReadOneDescriptorEiRP6HBufC8 @ 77 NONAME
	_ZNK12RPEngMessage17ReadOneDescriptorEiRP7HBufC16 @ 78 NONAME
	_ZNK12RPEngMessage18ReadOneDescriptorLEiR5RBuf8 @ 79 NONAME
	_ZNK12RPEngMessage18ReadOneDescriptorLEiR6RBuf16 @ 80 NONAME
	_ZNK12RPEngMessage18WriteOneDescriptorEiRK6TDesC8i @ 81 NONAME
	_ZNK12RPEngMessage18WriteOneDescriptorEiRK7TDesC16i @ 82 NONAME
	_ZNK12RPEngMessage19ReadOneDescriptor8LEi @ 83 NONAME
	_ZNK12RPEngMessage19WriteOneDescriptorLEiRK6TDesC8i @ 84 NONAME
	_ZNK12RPEngMessage19WriteOneDescriptorLEiRK7TDesC16i @ 85 NONAME
	_ZNK12RPEngMessage20ReadDescriptorArrayLEiR12CDesC16Array @ 86 NONAME
	_ZNK12RPEngMessage20ReadOneDescriptor16LEi @ 87 NONAME
	_ZNK12RPEngMessage20ReadOneDescriptor8LCEi @ 88 NONAME
	_ZNK12RPEngMessage21ReadDescriptorArrayLCEiR12CPtrC16Array @ 89 NONAME
	_ZNK12RPEngMessage21ReadOneDescriptor16LCEi @ 90 NONAME
	_ZNK12RPEngMessage21WriteDescriptorArrayLEiRK12MDesC16Array @ 91 NONAME
	_ZNK12RPEngMessage25ReadDescriptorArrayCountLEi @ 92 NONAME
	_ZNK12RPEngMessage29ReadFirstDescriptorFromArrayLEi @ 93 NONAME
	_ZNK12RPEngMessage4Int0Ev @ 94 NONAME
	_ZNK12RPEngMessage4Int1Ev @ 95 NONAME
	_ZNK12RPEngMessage4Int2Ev @ 96 NONAME
	_ZNK12RPEngMessage4Int3Ev @ 97 NONAME
	_ZNK12RPEngMessage4KillEi @ 98 NONAME
	_ZNK12RPEngMessage5PanicERK7TDesC16i @ 99 NONAME
	_ZNK12RPEngMessage6ClientER7RThread10TOwnerType @ 100 NONAME
	_ZNK12RPEngMessage8CompleteEi @ 101 NONAME
	_ZNK12RPEngMessage8FunctionEv @ 102 NONAME
	_ZNK12RPEngMessage9DesLengthEi @ 103 NONAME
	_ZNK12RPEngMessage9TerminateEi @ 104 NONAME
	_ZNK17TPEngServerParams10ServerNameEv @ 105 NONAME
	_ZNK17TPEngServerParams13AsCommandLineEv @ 106 NONAME
	_ZNK17TPEngServerParams6Param1Ev @ 107 NONAME
	_ZNK17TPEngServerParams6Param2Ev @ 108 NONAME
	_ZNK18CPEngSessionSlotId12ExternalizeLER12RWriteStream @ 109 NONAME
	_ZNK18CPEngSessionSlotId14ServiceAddressEv @ 110 NONAME
	_ZNK18CPEngSessionSlotId4SizeEv @ 111 NONAME
	_ZNK18CPEngSessionSlotId5MatchERKS_ @ 112 NONAME
	_ZNK18CPEngSessionSlotId6CloneLEv @ 113 NONAME
	_ZNK18CPEngSessionSlotId6PackLCEv @ 114 NONAME
	_ZNK18CPEngSessionSlotId6UserIdEv @ 115 NONAME
	_ZNK18CPEngSessionSlotId7CloneLCEv @ 116 NONAME
	_ZNK21CPEngSessionSlotEvent12ExternalizeLER12RWriteStreami @ 117 NONAME
	_ZNK21CPEngSessionSlotEvent13ApplicationIdEv @ 118 NONAME
	_ZNK21CPEngSessionSlotEvent15AppSessSltStateEv @ 119 NONAME
	_ZNK21CPEngSessionSlotEvent16GlobSessSltStateEv @ 120 NONAME
	_ZNK21CPEngSessionSlotEvent26SessionSlotIndentificationEv @ 121 NONAME
	_ZNK21CPEngSessionSlotEvent4SizeEi @ 122 NONAME
	_ZNK21CPEngSessionSlotEvent5EventEv @ 123 NONAME
	_ZNK21CPEngSessionSlotEvent8EventIntEv @ 124 NONAME
	_ZNK21CPEngSessionSlotEvent9EventDescEv @ 125 NONAME
	_ZNK21CPEngSessionSlotState10PackDataLCE18TPEngDataSelection @ 126 NONAME
	_ZNK21CPEngSessionSlotState12ExternalizeLER12RWriteStream18TPEngDataSelection @ 127 NONAME
	_ZNK21CPEngSessionSlotState13SessionSlotIdEv @ 128 NONAME
	_ZNK21CPEngSessionSlotState16SessionSlotStateEv @ 129 NONAME
	_ZNK21CPEngSessionSlotState18ActiveApplicationsEv @ 130 NONAME
	_ZNK21CPEngSessionSlotState22ApplicationRegisteredLERK7TDesC16 @ 131 NONAME
	_ZNK21CPEngSessionSlotState22RegisteredApplicationsEv @ 132 NONAME
	_ZNK21CPEngSessionSlotState4SizeE18TPEngDataSelection @ 133 NONAME
	_ZNK21CPEngSessionSlotState8AppStateERK7TDesC16 @ 134 NONAME
	_ZNK21CPEngSessionSlotState9PackDataLE18TPEngDataSelectionR5RBuf8 @ 135 NONAME
	_ZNK22CPEngTransactionStatus12PackResultsLEv @ 136 NONAME
	_ZTI18CPEngSessionSlotId @ 137 NONAME ; #<TI>#
	_ZTI21CPEngSessionSlotEvent @ 138 NONAME ; #<TI>#
	_ZTI21CPEngSessionSlotState @ 139 NONAME ; #<TI>#
	_ZTI22CPEngTransactionStatus @ 140 NONAME ; #<TI>#
	_ZTV18CPEngSessionSlotId @ 141 NONAME ; #<VT>#
	_ZTV21CPEngSessionSlotEvent @ 142 NONAME ; #<VT>#
	_ZTV21CPEngSessionSlotState @ 143 NONAME ; #<VT>#
	_ZTV22CPEngTransactionStatus @ 144 NONAME ; #<VT>#

