EXPORTS
	??0CCATextQueryDialog@@AAE@AAVTDes16@@ABW4TTone@CAknQueryDialog@@HH@Z @ 1 NONAME ; CCATextQueryDialog::CCATextQueryDialog(class TDes16 &, enum CAknQueryDialog::TTone const &, int, int)
	??1CCATextQueryDialog@@UAE@XZ @ 2 NONAME ; CCATextQueryDialog::~CCATextQueryDialog(void)
	?AddMenuItemL@IMUtils@@SAXHAAVCEikMenuPane@@HHH@Z @ 3 NONAME ; void IMUtils::AddMenuItemL(int, class CEikMenuPane &, int, int, int)
	?AppendArrayL@CAArrayUtils@@SAXABVCDesC16Array@@AAV2@@Z @ 4 NONAME ; void CAArrayUtils::AppendArrayL(class CDesC16Array const &, class CDesC16Array &)
	?AppendIfNotFoundL@CAArrayUtils@@SAHAAVCDesC16Array@@ABVTDesC16@@@Z @ 5 NONAME ; int CAArrayUtils::AppendIfNotFoundL(class CDesC16Array &, class TDesC16 const &)
	?CRKeyL@IMUtils@@SAKVTUid@@K@Z @ 6 NONAME ; unsigned long IMUtils::CRKeyL(class TUid, unsigned long)
	?CloneArrayLC@CAArrayUtils@@SAPAVCDesC16Array@@ABVMDesC16Array@@@Z @ 7 NONAME ; class CDesC16Array * CAArrayUtils::CloneArrayLC(class MDesC16Array const &)
	?CombineStringFromResourceLC@IMUtils@@SAPAVHBufC16@@HH@Z @ 8 NONAME ; class HBufC16 * IMUtils::CombineStringFromResourceLC(int, int)
	?ConstructL@CCAWaitNote@@AAEXABVTDesC16@@HHPAVMCAWaitNoteObserver@@@Z @ 9 NONAME ; void CCAWaitNote::ConstructL(class TDesC16 const &, int, int, class MCAWaitNoteObserver *)
	?ContentProtectedL@IMUtils@@SAHABVTDesC8@@@Z @ 10 NONAME ; int IMUtils::ContentProtectedL(class TDesC8 const &)
	?CreateDiffLC@CAArrayUtils@@SAPAVCDesC16Array@@ABV2@0@Z @ 11 NONAME ; class CDesC16Array * CAArrayUtils::CreateDiffLC(class CDesC16Array const &, class CDesC16Array const &)
	?DeleteIfFound@CAArrayUtils@@SAHAAVCDesC16Array@@ABVTDesC16@@@Z @ 12 NONAME ; int CAArrayUtils::DeleteIfFound(class CDesC16Array &, class TDesC16 const &)
	?DialogDismissedL@CCAWaitNote@@MAEXH@Z @ 13 NONAME ; void CCAWaitNote::DialogDismissedL(int)
	?DismissDialog@CCAWaitNote@@QAEXXZ @ 14 NONAME ; void CCAWaitNote::DismissDialog(void)
	?DisplayConfirmationNoteL@IMDialogUtils@@SAHH@Z @ 15 NONAME ; int IMDialogUtils::DisplayConfirmationNoteL(int)
	?DisplayErrorConfirmationNoteL@IMDialogUtils@@SAHABVTDesC16@@@Z @ 16 NONAME ; int IMDialogUtils::DisplayErrorConfirmationNoteL(class TDesC16 const &)
	?DisplayErrorConfirmationNoteL@IMDialogUtils@@SAHH@Z @ 17 NONAME ; int IMDialogUtils::DisplayErrorConfirmationNoteL(int)
	?DisplayErrorNoteL@IMDialogUtils@@SAHABVTDesC16@@H@Z @ 18 NONAME ; int IMDialogUtils::DisplayErrorNoteL(class TDesC16 const &, int)
	?DisplayErrorNoteL@IMDialogUtils@@SAHH@Z @ 19 NONAME ; int IMDialogUtils::DisplayErrorNoteL(int)
	?DisplayInformationNoteL@IMDialogUtils@@SAXABVTDesC16@@@Z @ 20 NONAME ; void IMDialogUtils::DisplayInformationNoteL(class TDesC16 const &)
	?DisplayInformationNoteL@IMDialogUtils@@SAXHABVTDesC16@@@Z @ 21 NONAME ; void IMDialogUtils::DisplayInformationNoteL(int, class TDesC16 const &)
	?DisplayListQueryDialogL@IMDialogUtils@@SAHPAHPAVMDesC16Array@@HABVTDesC16@@2HH@Z @ 22 NONAME ; int IMDialogUtils::DisplayListQueryDialogL(int *, class MDesC16Array *, int, class TDesC16 const &, class TDesC16 const &, int, int)
	?DisplayListQueryDialogL@IMDialogUtils@@SAHPAV?$CArrayFix@H@@PAVMDesC16Array@@H0ABVTDesC16@@2@Z @ 23 NONAME ; int IMDialogUtils::DisplayListQueryDialogL(class CArrayFix<int> *, class MDesC16Array *, int, class CArrayFix<int> *, class TDesC16 const &, class TDesC16 const &)
	?DisplayMessageQueryDialogL@IMDialogUtils@@SAHHABVTDesC16@@0H@Z @ 24 NONAME ; int IMDialogUtils::DisplayMessageQueryDialogL(int, class TDesC16 const &, class TDesC16 const &, int)
	?DisplayNoteDialogL@IMDialogUtils@@SAHABVTDesC16@@HABW4TTimeout@CAknNoteDialog@@@Z @ 25 NONAME ; int IMDialogUtils::DisplayNoteDialogL(class TDesC16 const &, int, enum CAknNoteDialog::TTimeout const &)
	?DisplayNoteDialogL@IMDialogUtils@@SAHH@Z @ 26 NONAME ; int IMDialogUtils::DisplayNoteDialogL(int)
	?DisplayPopupListL@IMDialogUtils@@SAXPAVMDesC16Array@@HW4TListBoxModelItemArrayOwnership@@H@Z @ 27 NONAME ; void IMDialogUtils::DisplayPopupListL(class MDesC16Array *, int, enum TListBoxModelItemArrayOwnership, int)
	?DisplayQueryDialogL@IMDialogUtils@@SAHHABVTDesC16@@@Z @ 28 NONAME ; int IMDialogUtils::DisplayQueryDialogL(int, class TDesC16 const &)
	?DisplayQueryDialogL@IMDialogUtils@@SAHHH@Z @ 29 NONAME ; int IMDialogUtils::DisplayQueryDialogL(int, int)
	?DisplayTextQueryDialogL@IMDialogUtils@@SAHAAVTDes16@@HHHHW4TLeftSoftkey@1@W4TInitialSelectionMode@1@H@Z @ 30 NONAME ; int IMDialogUtils::DisplayTextQueryDialogL(class TDes16 &, int, int, int, int, enum IMDialogUtils::TLeftSoftkey, enum IMDialogUtils::TInitialSelectionMode, int)
	?DisplayYesNoConfirmationDialogL@IMDialogUtils@@SAHABVTDesC16@@@Z @ 31 NONAME ; int IMDialogUtils::DisplayYesNoConfirmationDialogL(class TDesC16 const &)
	?DisplayYesNoConfirmationDialogL@IMDialogUtils@@SAHH@Z @ 32 NONAME ; int IMDialogUtils::DisplayYesNoConfirmationDialogL(int)
	?FFSSpaceBelowCriticalLevelL@IMUtils@@SAXHH@Z @ 33 NONAME ; void IMUtils::FFSSpaceBelowCriticalLevelL(int, int)
	?FileProtectedL@IMUtils@@SAHABV?$TBuf@$0BAA@@@@Z @ 34 NONAME ; int IMUtils::FileProtectedL(class TBuf<256> const &)
	?IgnoreOfflineStatusL@IMUtils@@SAHABVTDesC16@@@Z @ 35 NONAME ; int IMUtils::IgnoreOfflineStatusL(class TDesC16 const &)
	?IntResourceValueL@IMUtils@@SAHH@Z @ 36 NONAME ; int IMUtils::IntResourceValueL(int)
	?LaunchHelpL@IMUtils@@SAXABVTDesC16@@@Z @ 37 NONAME ; void IMUtils::LaunchHelpL(class TDesC16 const &)
	?MaxMsgLength@IMUtils@@SAHXZ @ 38 NONAME ; int IMUtils::MaxMsgLength(void)
	?MultiselectionListQueryDialogL@IMDialogUtils@@SAPAVCDesC16Array@@ABVMDesC16Array@@ABVTDesC16@@@Z @ 39 NONAME ; class CDesC16Array * IMDialogUtils::MultiselectionListQueryDialogL(class MDesC16Array const &, class TDesC16 const &)
	?NeutralFind@IMUtils@@SAHABVMDesC16Array@@ABVTDesC16@@@Z @ 40 NONAME ; int IMUtils::NeutralFind(class MDesC16Array const &, class TDesC16 const &)
	?NewL@CCATextQueryDialog@@SAPAV1@AAVTDes16@@ABW4TTone@CAknQueryDialog@@HH@Z @ 41 NONAME ; class CCATextQueryDialog * CCATextQueryDialog::NewL(class TDes16 &, enum CAknQueryDialog::TTone const &, int, int)
	?OfferKeyEventL@CCATextQueryDialog@@UAE?AW4TKeyResponse@@ABUTKeyEvent@@W4TEventCode@@@Z @ 42 NONAME ; enum TKeyResponse CCATextQueryDialog::OfferKeyEventL(struct TKeyEvent const &, enum TEventCode)
	?OkToExitL@CCATextQueryDialog@@UAEHH@Z @ 43 NONAME ; int CCATextQueryDialog::OkToExitL(int)
	?PopulateFormattedOnlineListL@IMUtils@@SAXABVMDesC16Array@@AAVCDesC16Array@@@Z @ 44 NONAME ; void IMUtils::PopulateFormattedOnlineListL(class MDesC16Array const &, class CDesC16Array &)
	?SetIcon@IMUtils@@SAXAAVCGulIcon@@0@Z @ 45 NONAME ; void IMUtils::SetIcon(class CGulIcon &, class CGulIcon &)
	?SetObserver@CCAWaitNote@@QAEXPAVMCAWaitNoteObserver@@@Z @ 46 NONAME ; void CCAWaitNote::SetObserver(class MCAWaitNoteObserver *)
	?SetSelectionsLC@CAArrayUtils@@SAPAV?$CArrayFixFlat@H@@ABVCDesC16Array@@0@Z @ 47 NONAME ; class CArrayFixFlat<int> * CAArrayUtils::SetSelectionsLC(class CDesC16Array const &, class CDesC16Array const &)
	?ShowNoteL@IMNoteMapper@@SAXHABVTDesC16@@@Z @ 48 NONAME ; void IMNoteMapper::ShowNoteL(int, class TDesC16 const &)
	?ShowWaitNoteL@CCAWaitNote@@SAPAV1@HHHPAVMCAWaitNoteObserver@@@Z @ 49 NONAME ; class CCAWaitNote * CCAWaitNote::ShowWaitNoteL(int, int, int, class MCAWaitNoteObserver *)
	?ShowWaitNoteLC@CCAWaitNote@@SAPAV1@ABVTDesC16@@HHPAVMCAWaitNoteObserver@@@Z @ 50 NONAME ; class CCAWaitNote * CCAWaitNote::ShowWaitNoteLC(class TDesC16 const &, int, int, class MCAWaitNoteObserver *)
	?ShowWaitNoteLC@CCAWaitNote@@SAPAV1@HHHPAVMCAWaitNoteObserver@@@Z @ 51 NONAME ; class CCAWaitNote * CCAWaitNote::ShowWaitNoteLC(int, int, int, class MCAWaitNoteObserver *)
	?UpdateIcon@IMUtils@@SAXAAPAVCGulIcon@@PAV2@@Z @ 52 NONAME ; void IMUtils::UpdateIcon(class CGulIcon * &, class CGulIcon *)
	?UpdateLeftSoftKeyL@CCATextQueryDialog@@UAEXXZ @ 53 NONAME ; void CCATextQueryDialog::UpdateLeftSoftKeyL(void)
	?WVSettingsChatLoginValue@IMUtils@@SAHXZ @ 54 NONAME ; int IMUtils::WVSettingsChatLoginValue(void)
	?IntResourceValueFromRssL@IMUtils@@SAHH@Z @ 55 NONAME ; int IMUtils::IntResourceValueFromRssL(int)
	?InitializeLibL@IMUtils@@SAXXZ @ 56 NONAME ; void IMUtils::InitializeLibL(void)
	?UnInitializeLib@IMUtils@@SAXXZ @ 57 NONAME ; void IMUtils::UnInitializeLib(void)
	?DisplayPopupListL@IMDialogUtils@@SAXAAHPAVMDesC16Array@@ABVTDesC16@@W4TListBoxModelItemArrayOwnership@@H@Z @ 58 NONAME ; void IMDialogUtils::DisplayPopupListL(int &, class MDesC16Array *, class TDesC16 const &, enum TListBoxModelItemArrayOwnership, int)

