EXPORTS
	_ZN17PEngMessagePacker12PackDesArrayER6TDes16RK12MDesC16Array @ 1 NONAME
	_ZN17PEngMessagePacker13FillTIntArrayER6TDes16i @ 2 NONAME
	_ZN17PEngMessagePacker13PackDesArrayLERK12MDesC16Array @ 3 NONAME
	_ZN17PEngMessagePacker13PackTIntArrayER6TDes16RK6RArrayIiE @ 4 NONAME
	_ZN17PEngMessagePacker14PackTIntArrayLERK6RArrayIiE @ 5 NONAME
	_ZN17PEngMessagePacker15UnpackDesArrayLERK7TDesC16R12CDesC16Array @ 6 NONAME
	_ZN17PEngMessagePacker16AppendToDesArrayER6TDes16RK7TDesC16 @ 7 NONAME
	_ZN17PEngMessagePacker16GetDesArrayCountERK7TDesC16 @ 8 NONAME
	_ZN17PEngMessagePacker16GetTIntFromArrayERK7TDesC16i @ 9 NONAME
	_ZN17PEngMessagePacker16UnpackTIntArrayLERK7TDesC16R6RArrayIiE @ 10 NONAME
	_ZN17PEngMessagePacker17GetTIntArrayCountERK7TDesC16 @ 11 NONAME
	_ZN17PEngMessagePacker17PackOneDesAsArrayER6TDes16RK7TDesC16 @ 12 NONAME
	_ZN17PEngMessagePacker18PackOneDesAsArrayLERK7TDesC16 @ 13 NONAME
	_ZN17PEngMessagePacker22GetDesArrayPackageSizeERK12MDesC16Array @ 14 NONAME
	_ZN17PEngMessagePacker22GetDesArrayPackageSizeERK7TDesC16 @ 15 NONAME
	_ZN17PEngMessagePacker23GetTIntArrayPackageSizeERK6RArrayIiE @ 16 NONAME
	_ZN18PEngNotifyServices16NotifyChangedSIdERK7TDesC16iPK22MPEngSIDChangeObserver @ 17 NONAME
	_ZN18PEngNotifyServices17NotifyChangedSIDsERK12MDesC16ArrayiPK22MPEngSIDChangeObserver @ 18 NONAME
	_ZN18PEngNotifyServices18StorageIDNotifierLEv @ 19 NONAME
	_ZN18PEngNotifyServices19StartNotifyFactoryLEv @ 20 NONAME
	_ZN18PEngNotifyServices21NotifyChangedSIDBlindERK7TDesC16iPK22MPEngSIDChangeObserver @ 21 NONAME
	_ZN18PEngNotifyServices24ResumeListenSIDsObserverERK22MPEngSIDChangeObserver @ 22 NONAME
	_ZN18PEngNotifyServices25SuspendListenSIDsObserverERK22MPEngSIDChangeObserver @ 23 NONAME
	_ZN18PEngNotifyServices25UpdateListenSIDsObserverLERK12MDesC16ArrayR22MPEngSIDChangeObserveri @ 24 NONAME
	_ZN18PEngNotifyServices25UpdateListenSIDsObserverLERK12MDesC16ArrayR22MPEngSIDChangeObserverii @ 25 NONAME
	_ZN18PEngNotifyServices26RemoveSIDsFromSIDsObserverERK12MDesC16ArrayRK22MPEngSIDChangeObserver @ 26 NONAME
	_ZN18PEngNotifyServices27RegisterListenSIDsObserverLERK12MDesC16ArrayR22MPEngSIDChangeObserveri @ 27 NONAME
	_ZN18PEngNotifyServices28RegisterListenEventObserverLER21MPEngNewEventObserver @ 28 NONAME
	_ZN18PEngNotifyServices28UnregisterListenSIDsObserverERK22MPEngSIDChangeObserver @ 29 NONAME
	_ZN18PEngNotifyServices29CurrentStateOfPresenceServerLEv @ 30 NONAME
	_ZN18PEngNotifyServices29UnregisterListenEventObserverER21MPEngNewEventObserver @ 31 NONAME
	_ZN18PEngNotifyServices5CloseEv @ 32 NONAME
	_ZN22RPEngClientTransferApi13ReadUserinfoLER7TDesC16 @ 33 NONAME
	_ZN22RPEngClientTransferApi13SendAttributeERK7TDesC16R8TPckgBufIiER14TRequestStatus @ 34 NONAME
	_ZN22RPEngClientTransferApi15SendContactListERK7TDesC16R8TPckgBufIiER14TRequestStatus @ 35 NONAME
	_ZN22RPEngClientTransferApi18SendAttributeListsERK7TDesC16R8TPckgBufIiER14TRequestStatus @ 36 NONAME
	_ZN22RPEngClientTransferApi19CancelSendAttributeEi @ 37 NONAME
	_ZN22RPEngClientTransferApi21CancelSendContactListEi @ 38 NONAME
	_ZN22RPEngClientTransferApi22SynchronizeContactListERK7TDesC16R8TPckgBufIiER14TRequestStatus @ 39 NONAME
	_ZN22RPEngClientTransferApi24CancelSendAttributeListsEv @ 40 NONAME
	_ZN22RPEngClientTransferApi28CancelSynchronizeContactListEi @ 41 NONAME
	_ZN22RPEngClientTransferApi5CloseEv @ 42 NONAME
	_ZN22RPEngClientTransferApi7ConnectEv @ 43 NONAME
	_ZN22RPEngClientTransferApiC1Ev @ 44 NONAME
	_ZN22RPEngClientTransferApiC2Ev @ 45 NONAME
	_ZN22RPEngClientTransferApiD1Ev @ 46 NONAME
	_ZN22RPEngClientTransferApiD2Ev @ 47 NONAME
	_ZN23RPEngClientStartStopApi11CancelLogInEv @ 48 NONAME
	_ZN23RPEngClientStartStopApi12CancelLogOutEv @ 49 NONAME
	_ZN23RPEngClientStartStopApi15IsServerRunningERi @ 50 NONAME
	_ZN23RPEngClientStartStopApi16ConnectionStatusERi @ 51 NONAME
	_ZN23RPEngClientStartStopApi16ReadLogInBufferLERP6HBufC8 @ 52 NONAME
	_ZN23RPEngClientStartStopApi19CancelSynchronizingEv @ 53 NONAME
	_ZN23RPEngClientStartStopApi22RunningServerProcessIdERj @ 54 NONAME
	_ZN23RPEngClientStartStopApi23SynchronizeWithWVServerER14TRequestStatus @ 55 NONAME
	_ZN23RPEngClientStartStopApi5CloseEv @ 56 NONAME
	_ZN23RPEngClientStartStopApi5LogInERK6TDesC8R14TRequestStatus @ 57 NONAME
	_ZN23RPEngClientStartStopApi6LogOutER14TRequestStatus @ 58 NONAME
	_ZN23RPEngClientStartStopApi7ConnectEv @ 59 NONAME
	_ZN23RPEngClientStartStopApi8ShutdownEv @ 60 NONAME
	_ZN23RPEngClientStartStopApiC1Ev @ 61 NONAME
	_ZN23RPEngClientStartStopApiC2Ev @ 62 NONAME
	_ZN23RPEngClientStartStopApiD1Ev @ 63 NONAME
	_ZN23RPEngClientStartStopApiD2Ev @ 64 NONAME

