EXPORTS
	??0CImpsCommonGroupProps@@IAE@XZ @ 1 NONAME ; CImpsCommonGroupProps::CImpsCommonGroupProps(void)
	??0CImpsGroupProps@@IAE@XZ @ 2 NONAME ; CImpsGroupProps::CImpsGroupProps(void)
	??0CImpsPrivateGroupProps@@IAE@XZ @ 3 NONAME ; CImpsPrivateGroupProps::CImpsPrivateGroupProps(void)
	??0RImpsAccessClient2@@QAE@XZ @ 4 NONAME ; RImpsAccessClient2::RImpsAccessClient2(void)
	??0RImpsClient2@@QAE@XZ @ 5 NONAME ; RImpsClient2::RImpsClient2(void)
	??0RImpsEng@@QAE@XZ @ 6 NONAME ; RImpsEng::RImpsEng(void)
	??0RImpsFundClient2@@QAE@XZ @ 7 NONAME ; RImpsFundClient2::RImpsFundClient2(void)
	??0RImpsGroupClient2@@QAE@XZ @ 8 NONAME ; RImpsGroupClient2::RImpsGroupClient2(void)
	??0RImpsImClient2@@QAE@XZ @ 9 NONAME ; RImpsImClient2::RImpsImClient2(void)
	??0RImpsPureClient2@@QAE@XZ @ 10 NONAME ; RImpsPureClient2::RImpsPureClient2(void)
	??0RImpsWatchClient@@QAE@XZ @ 11 NONAME ; RImpsWatchClient::RImpsWatchClient(void)
	??1CImpsCommonGroupProps@@UAE@XZ @ 12 NONAME ; CImpsCommonGroupProps::~CImpsCommonGroupProps(void)
	??1CImpsGroupProps@@UAE@XZ @ 13 NONAME ; CImpsGroupProps::~CImpsGroupProps(void)
	??1CImpsPrivateGroupProps@@UAE@XZ @ 14 NONAME ; CImpsPrivateGroupProps::~CImpsPrivateGroupProps(void)
	?AddL@CImpsGroupProps@@QAEXABVCImpsGroupProp@@@Z @ 15 NONAME ; void CImpsGroupProps::AddL(class CImpsGroupProp const &)
	?AddMembersL@RImpsGroupClient2@@QAEHABVTDesC16@@ABVMDesC16Array@@1@Z @ 16 NONAME ; int RImpsGroupClient2::AddMembersL(class TDesC16 const &, class MDesC16Array const &, class MDesC16Array const &)
	?BlockEntityRequestL@RImpsImClient2@@QAEHPBVMDesC16Array@@0H00H@Z @ 17 NONAME ; int RImpsImClient2::BlockEntityRequestL(class MDesC16Array const *, class MDesC16Array const *, int, class MDesC16Array const *, class MDesC16Array const *, int)
	?CancelInviteL@RImpsFundClient2@@QAEHABVTDesC16@@PBVMDesC16Array@@11000@Z @ 18 NONAME ; int RImpsFundClient2::CancelInviteL(class TDesC16 const &, class MDesC16Array const *, class MDesC16Array const *, class MDesC16Array const *, class TDesC16 const &, class TDesC16 const &, class TDesC16 const &)
	?CancelLoginL@RImpsAccessClient2@@QAEXH@Z @ 19 NONAME ; void RImpsAccessClient2::CancelLoginL(int)
	?CancelTransaction@RImpsClient2@@QAEXH@Z @ 20 NONAME ; void RImpsClient2::CancelTransaction(int)
	?CheckSubscriptionL@RImpsGroupClient2@@QAEHABVTDesC16@@@Z @ 21 NONAME ; int RImpsGroupClient2::CheckSubscriptionL(class TDesC16 const &)
	?Close@RImpsEng@@QAEXXZ @ 22 NONAME ; void RImpsEng::Close(void)
	?CloseCspSessionsL@RImpsAccessClient2@@QAEXXZ @ 23 NONAME ; void RImpsAccessClient2::CloseCspSessionsL(void)
	?Connect@RImpsEng@@QAEHH@Z @ 24 NONAME ; int RImpsEng::Connect(int)
	?Count@CImpsGroupProps@@QAEHXZ @ 25 NONAME ; int CImpsGroupProps::Count(void)
	?CreateGroupL@RImpsGroupClient2@@QAEHABVTDesC16@@PBVCImpsCommonGroupProps@@0HH@Z @ 26 NONAME ; int RImpsGroupClient2::CreateGroupL(class TDesC16 const &, class CImpsCommonGroupProps const *, class TDesC16 const &, int, int)
	?CspIdentifierL@RImpsClient2@@QAEPAVTImpsCspIdentifier@@XZ @ 27 NONAME ; class TImpsCspIdentifier * RImpsClient2::CspIdentifierL(void)
	?DeleteGroupL@RImpsGroupClient2@@QAEHABVTDesC16@@@Z @ 28 NONAME ; int RImpsGroupClient2::DeleteGroupL(class TDesC16 const &)
	?FirstL@CImpsGroupProps@@QAEABVCImpsGroupProp@@XZ @ 29 NONAME ; class CImpsGroupProp const & CImpsGroupProps::FirstL(void)
	?GetBlockedListRequestL@RImpsImClient2@@QAEHXZ @ 30 NONAME ; int RImpsImClient2::GetBlockedListRequestL(void)
	?GetServicesL@RImpsClient2@@QAEXAAVTImpsServices@@@Z @ 31 NONAME ; void RImpsClient2::GetServicesL(class TImpsServices &)
	?GroupInviteL@RImpsFundClient2@@QAEHABVTDesC16@@PBVMDesC16Array@@110000H@Z @ 32 NONAME ; int RImpsFundClient2::GroupInviteL(class TDesC16 const &, class MDesC16Array const *, class MDesC16Array const *, class MDesC16Array const *, class TDesC16 const &, class TDesC16 const &, class TDesC16 const &, class TDesC16 const &, int)
	?GroupMembersL@RImpsGroupClient2@@QAEHABVTDesC16@@@Z @ 33 NONAME ; int RImpsGroupClient2::GroupMembersL(class TDesC16 const &)
	?GroupName@CImpsCommonGroupProps@@QBE?AVTPtrC16@@XZ @ 34 NONAME ; class TPtrC16 CImpsCommonGroupProps::GroupName(void) const
	?GroupPropertiesL@RImpsGroupClient2@@QAEHABVTDesC16@@@Z @ 35 NONAME ; int RImpsGroupClient2::GroupPropertiesL(class TDesC16 const &)
	?ImInviteL@RImpsFundClient2@@QAEHABVTDesC16@@00H@Z @ 36 NONAME ; int RImpsFundClient2::ImInviteL(class TDesC16 const &, class TDesC16 const &, class TDesC16 const &, int)
	?InviteResponseL@RImpsFundClient2@@QAEHABVTDesC16@@H000@Z @ 37 NONAME ; int RImpsFundClient2::InviteResponseL(class TDesC16 const &, int, class TDesC16 const &, class TDesC16 const &, class TDesC16 const &)
	?IsMember@CImpsPrivateGroupProps@@QBE?AW4TImpsPropertyBool@@XZ @ 38 NONAME ; enum TImpsPropertyBool CImpsPrivateGroupProps::IsMember(void) const
	?IsOpen@CImpsCommonGroupProps@@QBE?AW4TImpsPropertyBool@@XZ @ 39 NONAME ; enum TImpsPropertyBool CImpsCommonGroupProps::IsOpen(void) const
	?IsPrivateAllowed@CImpsCommonGroupProps@@QBE?AW4TImpsPropertyBool@@XZ @ 40 NONAME ; enum TImpsPropertyBool CImpsCommonGroupProps::IsPrivateAllowed(void) const
	?IsPrivateAllowed@CImpsPrivateGroupProps@@QBE?AW4TImpsPropertyBool@@XZ @ 41 NONAME ; enum TImpsPropertyBool CImpsPrivateGroupProps::IsPrivateAllowed(void) const
	?IsPublic@CImpsCommonGroupProps@@QBE?AW4TImpsPropertyBool@@XZ @ 42 NONAME ; enum TImpsPropertyBool CImpsCommonGroupProps::IsPublic(void) const
	?IsSearchable@CImpsCommonGroupProps@@QBE?AW4TImpsPropertyBool@@XZ @ 43 NONAME ; enum TImpsPropertyBool CImpsCommonGroupProps::IsSearchable(void) const
	?JoinGroupL@RImpsGroupClient2@@QAEHABVTDesC16@@0HH@Z @ 44 NONAME ; int RImpsGroupClient2::JoinGroupL(class TDesC16 const &, class TDesC16 const &, int, int)
	?Key@CImpsGroupProp@@QBE?AVTPtrC16@@XZ @ 45 NONAME ; class TPtrC16 CImpsGroupProp::Key(void) const
	?LeaveGroupL@RImpsGroupClient2@@QAEHABVTDesC16@@@Z @ 46 NONAME ; int RImpsGroupClient2::LeaveGroupL(class TDesC16 const &)
	?LoginL@RImpsAccessClient2@@QAEHVTImpsCspIdentifier@@ABVTDesC16@@1KPBV3@2@Z @ 47 NONAME ; int RImpsAccessClient2::LoginL(class TImpsCspIdentifier, class TDesC16 const &, class TDesC16 const &, unsigned long, class TDesC16 const *, class TDesC16 const *)
	?LogoutL@RImpsAccessClient2@@QAEHXZ @ 48 NONAME ; int RImpsAccessClient2::LogoutL(void)
	?MaxNbrOfUsers@CImpsCommonGroupProps@@QBEHXZ @ 49 NONAME ; int CImpsCommonGroupProps::MaxNbrOfUsers(void) const
	?MaxTransactionContentLengthL@RImpsClient2@@QAEHXZ @ 50 NONAME ; int RImpsClient2::MaxTransactionContentLengthL(void)
	?ModifyMembersAccessL@RImpsGroupClient2@@QAEHABVTDesC16@@PBVMDesC16Array@@11@Z @ 51 NONAME ; int RImpsGroupClient2::ModifyMembersAccessL(class TDesC16 const &, class MDesC16Array const *, class MDesC16Array const *, class MDesC16Array const *)
	?NbrOfUsers@CImpsCommonGroupProps@@QBEHXZ @ 52 NONAME ; int CImpsCommonGroupProps::NbrOfUsers(void) const
	?NewL@CImpsCommonGroupProps@@SAPAV1@XZ @ 53 NONAME ; class CImpsCommonGroupProps * CImpsCommonGroupProps::NewL(void)
	?NewL@CImpsCommonGroupPropsInt@@SAPAV1@XZ @ 54 NONAME ; class CImpsCommonGroupPropsInt * CImpsCommonGroupPropsInt::NewL(void)
	?NewL@CImpsGroupProp@@SAPAV1@ABVTDesC16@@0@Z @ 55 NONAME ; class CImpsGroupProp * CImpsGroupProp::NewL(class TDesC16 const &, class TDesC16 const &)
	?NewL@CImpsPrivateGroupProps@@SAPAV1@XZ @ 56 NONAME ; class CImpsPrivateGroupProps * CImpsPrivateGroupProps::NewL(void)
	?NewL@CImpsPrivateGroupPropsInt@@SAPAV1@XZ @ 57 NONAME ; class CImpsPrivateGroupPropsInt * CImpsPrivateGroupPropsInt::NewL(void)
	?NextL@CImpsGroupProps@@QAEABVCImpsGroupProp@@XZ @ 58 NONAME ; class CImpsGroupProp const & CImpsGroupProps::NextL(void)
	?NumberOfSessionsL@RImpsAccessClient2@@QAEHAAVTImpsCspIdentifier@@@Z @ 59 NONAME ; int RImpsAccessClient2::NumberOfSessionsL(class TImpsCspIdentifier &)
	?Privileges@CImpsPrivateGroupProps@@QBE?AW4TImpsGroupUsers@@XZ @ 60 NONAME ; enum TImpsGroupUsers CImpsPrivateGroupProps::Privileges(void) const
	?ReactiveLoginL@RImpsAccessClient2@@QAEHVTImpsCspIdentifier@@ABVTDesC16@@1KPBV3@2@Z @ 61 NONAME ; int RImpsAccessClient2::ReactiveLoginL(class TImpsCspIdentifier, class TDesC16 const &, class TDesC16 const &, unsigned long, class TDesC16 const *, class TDesC16 const *)
	?Register@RImpsWatchClient@@QAEHXZ @ 62 NONAME ; int RImpsWatchClient::Register(void)
	?RegisterErrorObserverL@RImpsClient2@@QAEXAAVMImpsErrorHandler2@@@Z @ 63 NONAME ; void RImpsClient2::RegisterErrorObserverL(class MImpsErrorHandler2 &)
	?RegisterL@RImpsAccessClient2@@QAEXAAVRImpsEng@@PAVMImpsAccessHandler2@@H@Z @ 64 NONAME ; void RImpsAccessClient2::RegisterL(class RImpsEng &, class MImpsAccessHandler2 *, int)
	?RegisterL@RImpsFundClient2@@QAEXAAVRImpsEng@@PAVMImpsSearchHandler2@@PAVMImpsInviteHandler2@@ABVTDesC16@@HH@Z @ 65 NONAME ; void RImpsFundClient2::RegisterL(class RImpsEng &, class MImpsSearchHandler2 *, class MImpsInviteHandler2 *, class TDesC16 const &, int, int)
	?RegisterL@RImpsGroupClient2@@QAEXAAVRImpsEng@@PAVMImpsGroupHandler2@@ABVTDesC16@@HH@Z @ 66 NONAME ; void RImpsGroupClient2::RegisterL(class RImpsEng &, class MImpsGroupHandler2 *, class TDesC16 const &, int, int)
	?RegisterL@RImpsImClient2@@QAEXAAVRImpsEng@@PAVMImpsImHandler2@@PAVMImpsBlockingHandler2@@ABVTDesC16@@HH@Z @ 67 NONAME ; void RImpsImClient2::RegisterL(class RImpsEng &, class MImpsImHandler2 *, class MImpsBlockingHandler2 *, class TDesC16 const &, int, int)
	?RegisterL@RImpsPureClient2@@QAEXAAVRImpsEng@@PAVMImpsPureHandler2@@W4TImpsServiceType@@HH@Z @ 68 NONAME ; void RImpsPureClient2::RegisterL(class RImpsEng &, class MImpsPureHandler2 *, enum TImpsServiceType, int, int)
	?RegisterStatusObserverL@RImpsClient2@@QAEXPAVMImpsStatusHandler2@@@Z @ 69 NONAME ; void RImpsClient2::RegisterStatusObserverL(class MImpsStatusHandler2 *)
	?RemoveMembersL@RImpsGroupClient2@@QAEHABVTDesC16@@ABVMDesC16Array@@@Z @ 70 NONAME ; int RImpsGroupClient2::RemoveMembersL(class TDesC16 const &, class MDesC16Array const &)
	?Reset@CImpsCommonGroupProps@@UAEXXZ @ 71 NONAME ; void CImpsCommonGroupProps::Reset(void)
	?Reset@CImpsCommonGroupPropsInt@@UAEXXZ @ 72 NONAME ; void CImpsCommonGroupPropsInt::Reset(void)
	?Reset@CImpsGroupProps@@UAEXXZ @ 73 NONAME ; void CImpsGroupProps::Reset(void)
	?Reset@CImpsPrivateGroupProps@@UAEXXZ @ 74 NONAME ; void CImpsPrivateGroupProps::Reset(void)
	?Reset@CImpsPrivateGroupPropsInt@@UAEXXZ @ 75 NONAME ; void CImpsPrivateGroupPropsInt::Reset(void)
	?SearchFirstL@RImpsFundClient2@@QAEHABV?$CArrayPtrFlat@VCImpsSearchRequest@@@@H@Z @ 76 NONAME ; int RImpsFundClient2::SearchFirstL(class CArrayPtrFlat<class CImpsSearchRequest> const &, int)
	?SearchNextL@RImpsFundClient2@@QAEHHH@Z @ 77 NONAME ; int RImpsFundClient2::SearchNextL(int, int)
	?SendCIR@RImpsWatchClient@@QAEXABVTDesC8@@@Z @ 78 NONAME ; void RImpsWatchClient::SendCIR(class TDesC8 const &)
	?SendContentMessageL@RImpsImClient2@@QAEHPBVTDesC16@@PBVMDesC16Array@@01ABV2@ABVTDesC8@@H@Z @ 79 NONAME ; int RImpsImClient2::SendContentMessageL(class TDesC16 const *, class MDesC16Array const *, class TDesC16 const *, class MDesC16Array const *, class TDesC16 const &, class TDesC8 const &, int)
	?SendPureDataL@RImpsPureClient2@@QAEHABVTDesC8@@@Z @ 80 NONAME ; int RImpsPureClient2::SendPureDataL(class TDesC8 const &)
	?SendTextMessageL@RImpsImClient2@@QAEHPBVTDesC16@@PBVMDesC16Array@@01ABV2@H@Z @ 81 NONAME ; int RImpsImClient2::SendTextMessageL(class TDesC16 const *, class MDesC16Array const *, class TDesC16 const *, class MDesC16Array const *, class TDesC16 const &, int)
	?SetExpiryTime@RImpsClient2@@QAEXH@Z @ 82 NONAME ; void RImpsClient2::SetExpiryTime(int)
	?SetGroupNameL@CImpsCommonGroupProps@@QAEXABVTDesC16@@@Z @ 83 NONAME ; void CImpsCommonGroupProps::SetGroupNameL(class TDesC16 const &)
	?SetGroupPropertiesL@RImpsGroupClient2@@QAEHABVTDesC16@@PBVCImpsCommonGroupProps@@PBVCImpsPrivateGroupProps@@@Z @ 84 NONAME ; int RImpsGroupClient2::SetGroupPropertiesL(class TDesC16 const &, class CImpsCommonGroupProps const *, class CImpsPrivateGroupProps const *)
	?SetMaxNbrOfUsers@CImpsCommonGroupProps@@QAEXH@Z @ 85 NONAME ; void CImpsCommonGroupProps::SetMaxNbrOfUsers(int)
	?SetMember@CImpsPrivateGroupPropsInt@@QAEXW4TImpsPropertyBool@@@Z @ 86 NONAME ; void CImpsPrivateGroupPropsInt::SetMember(enum TImpsPropertyBool)
	?SetNbrOfUsers@CImpsCommonGroupPropsInt@@QAEXH@Z @ 87 NONAME ; void CImpsCommonGroupPropsInt::SetNbrOfUsers(int)
	?SetOpen@CImpsCommonGroupProps@@QAEXW4TImpsPropertyBool@@@Z @ 88 NONAME ; void CImpsCommonGroupProps::SetOpen(enum TImpsPropertyBool)
	?SetPrivateAllowed@CImpsCommonGroupProps@@QAEXW4TImpsPropertyBool@@@Z @ 89 NONAME ; void CImpsCommonGroupProps::SetPrivateAllowed(enum TImpsPropertyBool)
	?SetPrivateAllowed@CImpsPrivateGroupProps@@QAEXW4TImpsPropertyBool@@@Z @ 90 NONAME ; void CImpsPrivateGroupProps::SetPrivateAllowed(enum TImpsPropertyBool)
	?SetPrivileges@CImpsPrivateGroupPropsInt@@QAEXW4TImpsGroupUsers@@@Z @ 91 NONAME ; void CImpsPrivateGroupPropsInt::SetPrivileges(enum TImpsGroupUsers)
	?SetPublic@CImpsCommonGroupPropsInt@@QAEXW4TImpsPropertyBool@@@Z @ 92 NONAME ; void CImpsCommonGroupPropsInt::SetPublic(enum TImpsPropertyBool)
	?SetRejectListL@RImpsGroupClient2@@QAEHABVTDesC16@@PBVMDesC16Array@@1@Z @ 93 NONAME ; int RImpsGroupClient2::SetRejectListL(class TDesC16 const &, class MDesC16Array const *, class MDesC16Array const *)
	?SetSearchable@CImpsCommonGroupProps@@QAEXW4TImpsPropertyBool@@@Z @ 94 NONAME ; void CImpsCommonGroupProps::SetSearchable(enum TImpsPropertyBool)
	?SetTopicL@CImpsCommonGroupProps@@QAEXABVTDesC16@@@Z @ 95 NONAME ; void CImpsCommonGroupProps::SetTopicL(class TDesC16 const &)
	?SetWelcomeL@CImpsCommonGroupProps@@QAEXABVTDesC16@@@Z @ 96 NONAME ; void CImpsCommonGroupProps::SetWelcomeL(class TDesC16 const &)
	?StopSearchL@RImpsFundClient2@@QAEHH@Z @ 97 NONAME ; int RImpsFundClient2::StopSearchL(int)
	?SubscribeL@RImpsGroupClient2@@QAEHABVTDesC16@@@Z @ 98 NONAME ; int RImpsGroupClient2::SubscribeL(class TDesC16 const &)
	?Topic@CImpsCommonGroupProps@@QBE?AVTPtrC16@@XZ @ 99 NONAME ; class TPtrC16 CImpsCommonGroupProps::Topic(void) const
	?Type@CImpsCommonGroupProps@@UBE?AW4TImpsPropertyType@@XZ @ 100 NONAME ; enum TImpsPropertyType CImpsCommonGroupProps::Type(void) const
	?Type@CImpsPrivateGroupProps@@UBE?AW4TImpsPropertyType@@XZ @ 101 NONAME ; enum TImpsPropertyType CImpsPrivateGroupProps::Type(void) const
	?UnRegister@RImpsWatchClient@@QAEXXZ @ 102 NONAME ; void RImpsWatchClient::UnRegister(void)
	?Unregister@RImpsAccessClient2@@QAEXXZ @ 103 NONAME ; void RImpsAccessClient2::Unregister(void)
	?Unregister@RImpsFundClient2@@QAEXXZ @ 104 NONAME ; void RImpsFundClient2::Unregister(void)
	?Unregister@RImpsGroupClient2@@QAEXXZ @ 105 NONAME ; void RImpsGroupClient2::Unregister(void)
	?Unregister@RImpsImClient2@@QAEXXZ @ 106 NONAME ; void RImpsImClient2::Unregister(void)
	?Unregister@RImpsPureClient2@@QAEXXZ @ 107 NONAME ; void RImpsPureClient2::Unregister(void)
	?UnregisterErrorObserverL@RImpsClient2@@QAEXXZ @ 108 NONAME ; void RImpsClient2::UnregisterErrorObserverL(void)
	?UnregisterStatusObserverL@RImpsClient2@@QAEXXZ @ 109 NONAME ; void RImpsClient2::UnregisterStatusObserverL(void)
	?UnsubscribeL@RImpsGroupClient2@@QAEHABVTDesC16@@@Z @ 110 NONAME ; int RImpsGroupClient2::UnsubscribeL(class TDesC16 const &)
	?Value@CImpsGroupProp@@QBE?AVTPtrC16@@XZ @ 111 NONAME ; class TPtrC16 CImpsGroupProp::Value(void) const
	?WVVersionL@RImpsClient2@@QAE?AVTPtrC16@@XZ @ 112 NONAME ; class TPtrC16 RImpsClient2::WVVersionL(void)
	?Welcome@CImpsCommonGroupProps@@QBE?AVTPtrC16@@XZ @ 113 NONAME ; class TPtrC16 CImpsCommonGroupProps::Welcome(void) const
	?AutoDelete@CImpsCommonGroupProps@@QBE?AW4TImpsPropertyBool@@XZ @ 114 NONAME ; enum TImpsPropertyBool CImpsCommonGroupProps::AutoDelete(void) const
	?SetAutoDelete@CImpsCommonGroupProps@@QAEXW4TImpsPropertyBool@@@Z @ 115 NONAME ; void CImpsCommonGroupProps::SetAutoDelete(enum TImpsPropertyBool)

