EXPORTS
	_ZN17CCAStorageManager4NewLEv @ 1 NONAME
	_ZN24CCAStorageManagerFactory19GroupListInterfaceLEv @ 2 NONAME
	_ZN24CCAStorageManagerFactory21ContactListInterfaceLEv @ 3 NONAME
	_ZN24CCAStorageManagerFactory8ReleaseLEv @ 4 NONAME
	_ZN8CCAGroup10SetServerLERK7TDesC16 @ 5 NONAME
	_ZN8CCAGroup10SetVisibleEi @ 6 NONAME
	_ZN8CCAGroup11SetGroupIdLERK7TDesC16 @ 7 NONAME
	_ZN8CCAGroup11SetOwnGroupEi @ 8 NONAME
	_ZN8CCAGroup12InternalizeLER11RReadStream @ 9 NONAME
	_ZN8CCAGroup12SaveChangesLEv @ 10 NONAME
	_ZN8CCAGroup13SetGroupNameLERK7TDesC16 @ 11 NONAME
	_ZN8CCAGroup14SetStorageTypeEN22TStorageManagerGlobals14TCAStorageTypeE @ 12 NONAME
	_ZN8CCAGroup15AddParticipantLERK12MDesC16Array @ 13 NONAME
	_ZN8CCAGroup18AddMembersLocallyLERK12MDesC16Array @ 14 NONAME
	_ZN8CCAGroup18RemoveParticipantLERK12MDesC16Array @ 15 NONAME
	_ZN8CCAGroup18ResetParticipantsLEv @ 16 NONAME
	_ZN8CCAGroup19ResetMembersLocallyEv @ 17 NONAME
	_ZN8CCAGroup20RemoveMembersLocallyERK12MDesC16Array @ 18 NONAME
	_ZN8CCAGroup4NewLEP10CCAStorageP23MCAStoredGroupsObserver @ 19 NONAME
	_ZN8CCAGroup8SetAdminEi @ 20 NONAME
	_ZN8CCAGroup9SetJoinedEi @ 21 NONAME
	_ZN8CCAGroupD0Ev @ 22 NONAME
	_ZN8CCAGroupD1Ev @ 23 NONAME
	_ZN8CCAGroupD2Ev @ 24 NONAME
	_ZNK8CCAGroup10IsOwnGroupEv @ 25 NONAME
	_ZNK8CCAGroup11GetMembersLER12CDesC16Array @ 26 NONAME
	_ZNK8CCAGroup11MaximalSizeEv @ 27 NONAME
	_ZNK8CCAGroup11StorageTypeEv @ 28 NONAME
	_ZNK8CCAGroup12ExternalizeLER12RWriteStream @ 29 NONAME
	_ZNK8CCAGroup15NumParticipantsEv @ 30 NONAME
	_ZNK8CCAGroup16GetParticipantsLER12CDesC16Array @ 31 NONAME
	_ZNK8CCAGroup6ServerEv @ 32 NONAME
	_ZNK8CCAGroup7GroupIdEv @ 33 NONAME
	_ZNK8CCAGroup7IsAdminEv @ 34 NONAME
	_ZNK8CCAGroup7VersionEv @ 35 NONAME
	_ZNK8CCAGroup8IsJoinedEv @ 36 NONAME
	_ZNK8CCAGroup9GroupNameEv @ 37 NONAME
	_ZNK8CCAGroup9IsVisibleEv @ 38 NONAME
	_ZTI10CCAContact @ 39 NONAME ; #<TI>#
	_ZTI10CCAStorage @ 40 NONAME ; #<TI>#
	_ZTI15CCAGroupStorage @ 41 NONAME ; #<TI>#
	_ZTI15CCARefreshTimer @ 42 NONAME ; #<TI>#
	_ZTI17CCAStorageManager @ 43 NONAME ; #<TI>#
	_ZTI8CCAGroup @ 44 NONAME ; #<TI>#
	_ZTV10CCAContact @ 45 NONAME ; #<VT>#
	_ZTV10CCAStorage @ 46 NONAME ; #<VT>#
	_ZTV15CCAGroupStorage @ 47 NONAME ; #<VT>#
	_ZTV15CCARefreshTimer @ 48 NONAME ; #<VT>#
	_ZTV17CCAStorageManager @ 49 NONAME ; #<VT>#
	_ZTV8CCAGroup @ 50 NONAME ; #<VT>#
	_ZThn4_N8CCAGroup10SetServerLERK7TDesC16 @ 51 NONAME ; #<thunk>#
	_ZThn4_N8CCAGroup10SetVisibleEi @ 52 NONAME ; #<thunk>#
	_ZThn4_N8CCAGroup11SetGroupIdLERK7TDesC16 @ 53 NONAME ; #<thunk>#
	_ZThn4_N8CCAGroup11SetOwnGroupEi @ 54 NONAME ; #<thunk>#
	_ZThn4_N8CCAGroup12InternalizeLER11RReadStream @ 55 NONAME ; #<thunk>#
	_ZThn4_N8CCAGroup12SaveChangesLEv @ 56 NONAME ; #<thunk>#
	_ZThn4_N8CCAGroup13SetGroupNameLERK7TDesC16 @ 57 NONAME ; #<thunk>#
	_ZThn4_N8CCAGroup14SetStorageTypeEN22TStorageManagerGlobals14TCAStorageTypeE @ 58 NONAME ; #<thunk>#
	_ZThn4_N8CCAGroup15AddParticipantLERK12MDesC16Array @ 59 NONAME ; #<thunk>#
	_ZThn4_N8CCAGroup18AddMembersLocallyLERK12MDesC16Array @ 60 NONAME ; #<thunk>#
	_ZThn4_N8CCAGroup18RemoveParticipantLERK12MDesC16Array @ 61 NONAME ; #<thunk>#
	_ZThn4_N8CCAGroup18ResetParticipantsLEv @ 62 NONAME ; #<thunk>#
	_ZThn4_N8CCAGroup19ResetMembersLocallyEv @ 63 NONAME ; #<thunk>#
	_ZThn4_N8CCAGroup20RemoveMembersLocallyERK12MDesC16Array @ 64 NONAME ; #<thunk>#
	_ZThn4_N8CCAGroup8SetAdminEi @ 65 NONAME ; #<thunk>#
	_ZThn4_N8CCAGroup9SetJoinedEi @ 66 NONAME ; #<thunk>#
	_ZThn4_NK8CCAGroup10IsOwnGroupEv @ 67 NONAME ; #<thunk>#
	_ZThn4_NK8CCAGroup11GetMembersLER12CDesC16Array @ 68 NONAME ; #<thunk>#
	_ZThn4_NK8CCAGroup11MaximalSizeEv @ 69 NONAME ; #<thunk>#
	_ZThn4_NK8CCAGroup11StorageTypeEv @ 70 NONAME ; #<thunk>#
	_ZThn4_NK8CCAGroup12ExternalizeLER12RWriteStream @ 71 NONAME ; #<thunk>#
	_ZThn4_NK8CCAGroup15NumParticipantsEv @ 72 NONAME ; #<thunk>#
	_ZThn4_NK8CCAGroup16GetParticipantsLER12CDesC16Array @ 73 NONAME ; #<thunk>#
	_ZThn4_NK8CCAGroup6ServerEv @ 74 NONAME ; #<thunk>#
	_ZThn4_NK8CCAGroup7GroupIdEv @ 75 NONAME ; #<thunk>#
	_ZThn4_NK8CCAGroup7IsAdminEv @ 76 NONAME ; #<thunk>#
	_ZThn4_NK8CCAGroup7VersionEv @ 77 NONAME ; #<thunk>#
	_ZThn4_NK8CCAGroup8IsJoinedEv @ 78 NONAME ; #<thunk>#
	_ZThn4_NK8CCAGroup9GroupNameEv @ 79 NONAME ; #<thunk>#
	_ZThn4_NK8CCAGroup9IsVisibleEv @ 80 NONAME ; #<thunk>#

