EXPORTS
	??0CPEngStoreEntry@@IAE@W4TPEngStorageType@@@Z @ 1 NONAME ; CPEngStoreEntry::CPEngStoreEntry(enum TPEngStorageType)
	??0RPEngStorageAdminClient@@QAE@XZ @ 2 NONAME ; RPEngStorageAdminClient::RPEngStorageAdminClient(void)
	??0RPEngStorageAdminSubClient@@QAE@XZ @ 3 NONAME ; RPEngStorageAdminSubClient::RPEngStorageAdminSubClient(void)
	??1CPEngStoreEntry@@UAE@XZ @ 4 NONAME ; CPEngStoreEntry::~CPEngStoreEntry(void)
	??1RPEngStorageAdminClient@@QAE@XZ @ 5 NONAME ; RPEngStorageAdminClient::~RPEngStorageAdminClient(void)
	??1RPEngStorageAdminSubClient@@QAE@XZ @ 6 NONAME ; RPEngStorageAdminSubClient::~RPEngStorageAdminSubClient(void)
	?AllSessionSlotsStatesL@PEngStorageManager@@SAXAAV?$RObjectArray@VCPEngSessionSlotState@@@@@Z @ 7 NONAME ; void PEngStorageManager::AllSessionSlotsStatesL(class RObjectArray<class CPEngSessionSlotState> &)
	?BaseConstructL@CPEngStoreEntry@@IAEXAAVMPEngStorageManager@@H@Z @ 8 NONAME ; void CPEngStoreEntry::BaseConstructL(class MPEngStorageManager &, int)
	?BaseConstructL@CPEngStoreEntry@@IAEXXZ @ 9 NONAME ; void CPEngStoreEntry::BaseConstructL(void)
	?BufferServerSideNotifications@CPEngStoreEntry@@QAEHXZ @ 10 NONAME ; int CPEngStoreEntry::BufferServerSideNotifications(void)
	?ChangeStorageTypeL@CPEngStoreEntry@@QAEXW4TPEngStorageType@@@Z @ 11 NONAME ; void CPEngStoreEntry::ChangeStorageTypeL(enum TPEngStorageType)
	?CheckAppIdRegistration@RPEngStorageAdminSubClient@@QAEHABVTDesC16@@@Z @ 12 NONAME ; int RPEngStorageAdminSubClient::CheckAppIdRegistration(class TDesC16 const &)
	?Close@RPEngStorageAdminClient@@QAEXXZ @ 13 NONAME ; void RPEngStorageAdminClient::Close(void)
	?Close@RPEngStorageAdminSubClient@@QAEXXZ @ 14 NONAME ; void RPEngStorageAdminSubClient::Close(void)
	?Connect@RPEngStorageAdminClient@@QAEHXZ @ 15 NONAME ; int RPEngStorageAdminClient::Connect(void)
	?Connect@RPEngStorageAdminSubClient@@QAEHAAVRPEngStorageAdminClient@@ABVTDesC8@@@Z @ 16 NONAME ; int RPEngStorageAdminSubClient::Connect(class RPEngStorageAdminClient &, class TDesC8 const &)
	?CreateSessionFolderL@PEngStorageManager@@SAXABVCPEngSessionSlotId@@ABVTDesC16@@@Z @ 17 NONAME ; void PEngStorageManager::CreateSessionFolderL(class CPEngSessionSlotId const &, class TDesC16 const &)
	?GetStorageManagerL@PEngStorageManager@@SAPAVMPEngStorageManager@@ABVCPEngSessionSlotId@@@Z @ 18 NONAME ; class MPEngStorageManager * PEngStorageManager::GetStorageManagerL(class CPEngSessionSlotId const &)
	?GetStorageManagerWatcherL@PEngStorageManager@@SAPAVMPEngStorageManagerWatcher@@ABVCPEngSessionSlotId@@@Z @ 19 NONAME ; class MPEngStorageManagerWatcher * PEngStorageManager::GetStorageManagerWatcherL(class CPEngSessionSlotId const &)
	?HandleSIDNotifyError@CPEngStoreEntry@@UAEXH@Z @ 20 NONAME ; void CPEngStoreEntry::HandleSIDNotifyError(int)
	?HandleSIDsChangeL@CPEngStoreEntry@@UAEXAAVCPtrC16Array@@@Z @ 21 NONAME ; void CPEngStoreEntry::HandleSIDsChangeL(class CPtrC16Array &)
	?Lock@CPEngStoreEntry@@QBEHW4TPengStorageLockPriority@@H@Z @ 22 NONAME ; int CPEngStoreEntry::Lock(enum TPengStorageLockPriority, int) const
	?LockLC@CPEngStoreEntry@@QAEHXZ @ 23 NONAME ; int CPEngStoreEntry::LockLC(void)
	?NotifyError@RPEngStorageAdminSubClient@@QAEHH@Z @ 24 NONAME ; int RPEngStorageAdminSubClient::NotifyError(int)
	?NotifyEvent@RPEngStorageAdminSubClient@@QAEHABVTDesC8@@@Z @ 25 NONAME ; int RPEngStorageAdminSubClient::NotifyEvent(class TDesC8 const &)
	?RegisterGlobalEventObserverL@PEngStorageManager@@SAXAAVMPEngGlobalEventObserver@@@Z @ 26 NONAME ; void PEngStorageManager::RegisterGlobalEventObserverL(class MPEngGlobalEventObserver &)
	?Release@CPEngStoreEntry@@UAEXXZ @ 27 NONAME ; void CPEngStoreEntry::Release(void)
	?ReleaseServerSideBuffering@CPEngStoreEntry@@QAEHXZ @ 28 NONAME ; int CPEngStoreEntry::ReleaseServerSideBuffering(void)
	?RemoveSessionFolderL@PEngStorageManager@@SAXABVCPEngSessionSlotId@@ABVTDesC16@@@Z @ 29 NONAME ; void PEngStorageManager::RemoveSessionFolderL(class CPEngSessionSlotId const &, class TDesC16 const &)
	?SessionSlotStateL@PEngStorageManager@@SAXABVCPEngSessionSlotId@@AAVCPEngSessionSlotState@@@Z @ 30 NONAME ; void PEngStorageManager::SessionSlotStateL(class CPEngSessionSlotId const &, class CPEngSessionSlotState &)
	?StorageType@CPEngStoreEntry@@QBE?AW4TPEngStorageType@@XZ @ 31 NONAME ; enum TPEngStorageType CPEngStoreEntry::StorageType(void) const
	?StoreL@CPEngStoreEntry@@QAEXXZ @ 32 NONAME ; void CPEngStoreEntry::StoreL(void)
	?Unlock@CPEngStoreEntry@@QBEHXZ @ 33 NONAME ; int CPEngStoreEntry::Unlock(void) const
	?UnregisterGlobalObserver@PEngStorageManager@@SAXAAVMPEngGlobalEventObserver@@@Z @ 34 NONAME ; void PEngStorageManager::UnregisterGlobalObserver(class MPEngGlobalEventObserver &)
	?WipeSession@RPEngStorageAdminClient@@QAEHABVTDesC8@@@Z @ 35 NONAME ; int RPEngStorageAdminClient::WipeSession(class TDesC8 const &)

