EXPORTS
	??0TImpsDataAccessor@@QAE@PAVCImpsFields@@@Z @ 1 NONAME ; TImpsDataAccessor::TImpsDataAccessor(class CImpsFields *)
	??0TImpsDataAccessor@@QAE@XZ @ 2 NONAME ; TImpsDataAccessor::TImpsDataAccessor(void)
	??0TImpsDataUtils@@QAE@XZ @ 3 NONAME ; TImpsDataUtils::TImpsDataUtils(void)
	??0TImpsPackedEntity@@QAE@AAPAVHBufC8@@@Z @ 4 NONAME ; TImpsPackedEntity::TImpsPackedEntity(class HBufC8 * &)
	??0TImpsSessionIdent@@QAE@ABVTDesC16@@00@Z @ 5 NONAME ; TImpsSessionIdent::TImpsSessionIdent(class TDesC16 const &, class TDesC16 const &, class TDesC16 const &)
	??1CImpsDataAccessor@@UAE@XZ @ 6 NONAME ; CImpsDataAccessor::~CImpsDataAccessor(void)
	??1CImpsFields@@UAE@XZ @ 7 NONAME ; CImpsFields::~CImpsFields(void)
	??1CImpsKey@@UAE@XZ @ 8 NONAME ; CImpsKey::~CImpsKey(void)
	??1CImpsSettingFile@@UAE@XZ @ 9 NONAME ; CImpsSettingFile::~CImpsSettingFile(void)
	??1TImpsDataAccessor@@UAE@XZ @ 10 NONAME ; TImpsDataAccessor::~TImpsDataAccessor(void)
	?AddValuesFromArrayL@TImpsDataUtils@@SAXPAVMImpsKey@@PBW4TImpsContent@@H@Z @ 11 NONAME ; void TImpsDataUtils::AddValuesFromArrayL(class MImpsKey *, enum TImpsContent const *, int)
	?CheckBranchExistenceL@TImpsDataAccessor@@UBEHPBVMImpsKey@@@Z @ 12 NONAME ; int TImpsDataAccessor::CheckBranchExistenceL(class MImpsKey const *) const
	?CopyDataL@TImpsDataAccessor@@UAEXAAVMImpsDataAccessor@@PAVMImpsKey@@@Z @ 13 NONAME ; void TImpsDataAccessor::CopyDataL(class MImpsDataAccessor &, class MImpsKey *)
	?CopyGroupPropertiesL@TImpsDataUtils@@SAXAAVMImpsDataAccessor@@0@Z @ 14 NONAME ; void TImpsDataUtils::CopyGroupPropertiesL(class MImpsDataAccessor &, class MImpsDataAccessor &)
	?CopyLeftUsersL@TImpsDataUtils@@SAXAAVMImpsDataAccessor@@0@Z @ 15 NONAME ; void TImpsDataUtils::CopyLeftUsersL(class MImpsDataAccessor &, class MImpsDataAccessor &)
	?CopyNewUsersL@TImpsDataUtils@@SAXAAVMImpsDataAccessor@@0@Z @ 16 NONAME ; void TImpsDataUtils::CopyNewUsersL(class MImpsDataAccessor &, class MImpsDataAccessor &)
	?CopyOwnPropertiesL@TImpsDataUtils@@SAXAAVMImpsDataAccessor@@0@Z @ 17 NONAME ; void TImpsDataUtils::CopyOwnPropertiesL(class MImpsDataAccessor &, class MImpsDataAccessor &)
	?CreateClientIdL@TImpsDataUtils@@SAXPAVMImpsKey@@PAVMImpsDataAccessor@@ABVTDesC16@@@Z @ 18 NONAME ; void TImpsDataUtils::CreateClientIdL(class MImpsKey *, class MImpsDataAccessor *, class TDesC16 const &)
	?DoPackArray@TImpsPackedEntity@@SAXAAPBEPBVMDesC16Array@@@Z @ 19 NONAME ; void TImpsPackedEntity::DoPackArray(unsigned char const * &, class MDesC16Array const *)
	?DoUnpackArrayL@TImpsPackedEntity@@SAXAAPBEPAVCDesC16Array@@@Z @ 20 NONAME ; void TImpsPackedEntity::DoUnpackArrayL(unsigned char const * &, class CDesC16Array *)
	?GetCenRepIntValueL@TImpsDataUtils@@SAHVTUid@@K@Z @ 21 NONAME ; int TImpsDataUtils::GetCenRepIntValueL(class TUid, unsigned long)
	?GetCenRepRealValueL@TImpsDataUtils@@SANVTUid@@K@Z @ 22 NONAME ; double TImpsDataUtils::GetCenRepRealValueL(class TUid, unsigned long)
	?GetContentDataL@TImpsDataUtils@@SAXPAVMImpsKey@@PAVMImpsDataAccessor@@AAVTPtrC16@@@Z @ 23 NONAME ; void TImpsDataUtils::GetContentDataL(class MImpsKey *, class MImpsDataAccessor *, class TPtrC16 &)
	?GetContentTypeL@TImpsDataUtils@@SAXPAVMImpsDataAccessor@@AAVTPtrC16@@@Z @ 24 NONAME ; void TImpsDataUtils::GetContentTypeL(class MImpsDataAccessor *, class TPtrC16 &)
	?GetImpsFields@TImpsDataAccessor@@UBEPAVCImpsFields@@XZ @ 25 NONAME ; class CImpsFields * TImpsDataAccessor::GetImpsFields(void) const
	?GetMessageTypeL@TImpsDataUtils@@SAHPAVMImpsDataAccessor@@@Z @ 26 NONAME ; int TImpsDataUtils::GetMessageTypeL(class MImpsDataAccessor *)
	?GetNewMessageIdL@TImpsDataUtils@@SAHPAVMImpsKey@@PAVMImpsDataAccessor@@AAVTPtrC16@@@Z @ 27 NONAME ; int TImpsDataUtils::GetNewMessageIdL(class MImpsKey *, class MImpsDataAccessor *, class TPtrC16 &)
	?GetPollL@TImpsDataUtils@@SAHPAVMImpsKey@@PAVMImpsDataAccessor@@AAH@Z @ 28 NONAME ; int TImpsDataUtils::GetPollL(class MImpsKey *, class MImpsDataAccessor *, int &)
	?GetResultStatusL@TImpsDataUtils@@SAHPAVMImpsKey@@PAVMImpsDataAccessor@@AAH@Z @ 29 NONAME ; int TImpsDataUtils::GetResultStatusL(class MImpsKey *, class MImpsDataAccessor *, int &)
	?GetSenderL@TImpsDataUtils@@SAXPAVMImpsKey@@PAVMImpsDataAccessor@@AAVTPtrC16@@2@Z @ 30 NONAME ; void TImpsDataUtils::GetSenderL(class MImpsKey *, class MImpsDataAccessor *, class TPtrC16 &, class TPtrC16 &)
	?GetSessionIDL@TImpsDataUtils@@SAXPAVMImpsDataAccessor@@AAVTPtrC16@@@Z @ 31 NONAME ; void TImpsDataUtils::GetSessionIDL(class MImpsDataAccessor *, class TPtrC16 &)
	?GetSessionTypeL@TImpsDataUtils@@SAXPAVMImpsDataAccessor@@AAW4TImpsSessionType@@@Z @ 32 NONAME ; void TImpsDataUtils::GetSessionTypeL(class MImpsDataAccessor *, enum TImpsSessionType &)
	?GetTransactionIDL@TImpsDataUtils@@SAXPAVMImpsDataAccessor@@AAVTPtrC16@@@Z @ 33 NONAME ; void TImpsDataUtils::GetTransactionIDL(class MImpsDataAccessor *, class TPtrC16 &)
	?GetTransactionL@TImpsDataAccessor@@QBEHHPAVCImpsFields@@@Z @ 34 NONAME ; int TImpsDataAccessor::GetTransactionL(int, class CImpsFields *) const
	?IsFeatureSupportedL@CImpsVariant@@QBEHW4TImpsVariants@@@Z @ 35 NONAME ; int CImpsVariant::IsFeatureSupportedL(enum TImpsVariants) const
	?KeyTypeL@TImpsDataAccessor@@UAE?AW4TImpsDataType@@PAVMImpsKey@@@Z @ 36 NONAME ; enum TImpsDataType TImpsDataAccessor::KeyTypeL(class MImpsKey *)
	?KeyValueL@CImpsSettingFile@@QAE?AVTPtrC8@@ABVTDesC8@@@Z @ 37 NONAME ; class TPtrC8 CImpsSettingFile::KeyValueL(class TDesC8 const &)
	?Log@CImpsClientLogger@@SAXV?$TRefByValue@$$CBVTDesC16@@@@ZZ @ 38 NONAME ; void CImpsClientLogger::Log(class TRefByValue<class TDesC16 const >, ...)
	?NbrOfTransactionsL@TImpsDataAccessor@@QBEHXZ @ 39 NONAME ; int TImpsDataAccessor::NbrOfTransactionsL(void) const
	?NewKeyL@TImpsDataAccessor@@UAEPAVMImpsKey@@XZ @ 40 NONAME ; class MImpsKey * TImpsDataAccessor::NewKeyL(void)
	?NewL@CImpsCommonGroupPropsInt@@SAPAV1@XZ @ 41 NONAME ; class CImpsCommonGroupPropsInt * CImpsCommonGroupPropsInt::NewL(void)
	?NewL@CImpsDataAccessor@@SAPAV1@PAVCImpsFields@@@Z @ 42 NONAME ; class CImpsDataAccessor * CImpsDataAccessor::NewL(class CImpsFields *)
	?NewL@CImpsFields@@SAPAV1@XZ @ 43 NONAME ; class CImpsFields * CImpsFields::NewL(void)
	?NewL@CImpsKey@@SAPAV1@XZ @ 44 NONAME ; class CImpsKey * CImpsKey::NewL(void)
	?NewL@CImpsPrivateGroupPropsInt@@SAPAV1@XZ @ 45 NONAME ; class CImpsPrivateGroupPropsInt * CImpsPrivateGroupPropsInt::NewL(void)
	?NewL@CImpsSettingFile@@SAPAV1@AAVRFs@@@Z @ 46 NONAME ; class CImpsSettingFile * CImpsSettingFile::NewL(class RFs &)
	?NewLC@CImpsDataAccessor@@SAPAV1@PAVCImpsFields@@@Z @ 47 NONAME ; class CImpsDataAccessor * CImpsDataAccessor::NewLC(class CImpsFields *)
	?NewLC@CImpsKey@@SAPAV1@XZ @ 48 NONAME ; class CImpsKey * CImpsKey::NewLC(void)
	?NewLC@CImpsVariant@@SAPAV1@XZ @ 49 NONAME ; class CImpsVariant * CImpsVariant::NewLC(void)
	?OpenL@CImpsSettingFile@@QAEXAAVTDesC16@@@Z @ 50 NONAME ; void CImpsSettingFile::OpenL(class TDesC16 &)
	?PackEntity@TImpsPackedEntity@@QAEHABVCImpsFields@@@Z @ 51 NONAME ; int TImpsPackedEntity::PackEntity(class CImpsFields const &)
	?PollL@CImpsFields@@QAEHXZ @ 52 NONAME ; int CImpsFields::PollL(void)
	?Reset@CImpsCommonGroupPropsInt@@UAEXXZ @ 53 NONAME ; void CImpsCommonGroupPropsInt::Reset(void)
	?Reset@CImpsFields@@QAEXXZ @ 54 NONAME ; void CImpsFields::Reset(void)
	?Reset@CImpsPrivateGroupPropsInt@@UAEXXZ @ 55 NONAME ; void CImpsPrivateGroupPropsInt::Reset(void)
	?ResponseStatusL@CImpsFields@@QAEJXZ @ 56 NONAME ; long CImpsFields::ResponseStatusL(void)
	?RestoreAlternativeL@TImpsDataAccessor@@UBEHPBVMImpsKey@@AAH1AAW4TImpsKeyType@@@Z @ 57 NONAME ; int TImpsDataAccessor::RestoreAlternativeL(class MImpsKey const *, int &, int &, enum TImpsKeyType &) const
	?RestoreBooleanL@TImpsDataAccessor@@UAEHPAVMImpsKey@@AAH@Z @ 58 NONAME ; int TImpsDataAccessor::RestoreBooleanL(class MImpsKey *, int &)
	?RestoreDesc8L@TImpsDataAccessor@@UAEHPAVMImpsKey@@AAPAVTDesC8@@@Z @ 59 NONAME ; int TImpsDataAccessor::RestoreDesc8L(class MImpsKey *, class TDesC8 * &)
	?RestoreDescL@TImpsDataAccessor@@UAEHPAVMImpsKey@@AAPAVTDesC16@@@Z @ 60 NONAME ; int TImpsDataAccessor::RestoreDescL(class MImpsKey *, class TDesC16 * &)
	?RestoreEmptyL@TImpsDataAccessor@@UAEHPAVMImpsKey@@@Z @ 61 NONAME ; int TImpsDataAccessor::RestoreEmptyL(class MImpsKey *)
	?RestoreExtL@TImpsDataAccessor@@UAEHPAVMImpsKey@@AAPAVTDesC8@@1@Z @ 62 NONAME ; int TImpsDataAccessor::RestoreExtL(class MImpsKey *, class TDesC8 * &, class TDesC8 * &)
	?RestoreIntegerL@TImpsDataAccessor@@UAEHPAVMImpsKey@@AAH@Z @ 63 NONAME ; int TImpsDataAccessor::RestoreIntegerL(class MImpsKey *, int &)
	?SessionIdL@CImpsFields@@QAE?AVTPtrC16@@XZ @ 64 NONAME ; class TPtrC16 CImpsFields::SessionIdL(void)
	?SessionTypeL@CImpsFields@@QAE?AW4TImpsSessionType@@XZ @ 65 NONAME ; enum TImpsSessionType CImpsFields::SessionTypeL(void)
	?SetBinaryContentDataL@TImpsDataUtils@@SAXPAVMImpsKey@@PAVMImpsDataAccessor@@ABVTDesC8@@@Z @ 66 NONAME ; void TImpsDataUtils::SetBinaryContentDataL(class MImpsKey *, class MImpsDataAccessor *, class TDesC8 const &)
	?SetContentDataL@TImpsDataUtils@@SAXPAVMImpsKey@@PAVMImpsDataAccessor@@ABVTDesC16@@@Z @ 67 NONAME ; void TImpsDataUtils::SetContentDataL(class MImpsKey *, class MImpsDataAccessor *, class TDesC16 const &)
	?SetImpsFields@TImpsDataAccessor@@QAEXPAVCImpsFields@@@Z @ 68 NONAME ; void TImpsDataAccessor::SetImpsFields(class CImpsFields *)
	?SetMember@CImpsPrivateGroupPropsInt@@QAEXW4TImpsPropertyBool@@@Z @ 69 NONAME ; void CImpsPrivateGroupPropsInt::SetMember(enum TImpsPropertyBool)
	?SetNbrOfUsers@CImpsCommonGroupPropsInt@@QAEXH@Z @ 70 NONAME ; void CImpsCommonGroupPropsInt::SetNbrOfUsers(int)
	?SetPrivileges@CImpsPrivateGroupPropsInt@@QAEXW4TImpsGroupUsers@@@Z @ 71 NONAME ; void CImpsPrivateGroupPropsInt::SetPrivileges(enum TImpsGroupUsers)
	?SetPublic@CImpsCommonGroupPropsInt@@QAEXW4TImpsPropertyBool@@@Z @ 72 NONAME ; void CImpsCommonGroupPropsInt::SetPublic(enum TImpsPropertyBool)
	?SetResultStatusL@TImpsDataUtils@@SAXPAVMImpsKey@@PAVMImpsDataAccessor@@H@Z @ 73 NONAME ; void TImpsDataUtils::SetResultStatusL(class MImpsKey *, class MImpsDataAccessor *, int)
	?SetSenderL@TImpsDataUtils@@SAXPAVMImpsKey@@PAVMImpsDataAccessor@@PBVTDesC16@@2@Z @ 74 NONAME ; void TImpsDataUtils::SetSenderL(class MImpsKey *, class MImpsDataAccessor *, class TDesC16 const *, class TDesC16 const *)
	?SetSessionIDL@TImpsDataUtils@@SAXPAVMImpsDataAccessor@@ABVTDesC16@@@Z @ 75 NONAME ; void TImpsDataUtils::SetSessionIDL(class MImpsDataAccessor *, class TDesC16 const &)
	?SetSessionIdL@CImpsFields@@QAEXABVTDesC16@@@Z @ 76 NONAME ; void CImpsFields::SetSessionIdL(class TDesC16 const &)
	?SetSessionTypeL@CImpsFields@@QAEXW4TImpsSessionType@@@Z @ 77 NONAME ; void CImpsFields::SetSessionTypeL(enum TImpsSessionType)
	?SetSessionTypeL@TImpsDataUtils@@SAXPAVMImpsDataAccessor@@W4TImpsSessionType@@@Z @ 78 NONAME ; void TImpsDataUtils::SetSessionTypeL(class MImpsDataAccessor *, enum TImpsSessionType)
	?SetTidL@CImpsFields@@QAEXABVTDesC16@@@Z @ 79 NONAME ; void CImpsFields::SetTidL(class TDesC16 const &)
	?SetTransactionIDL@TImpsDataUtils@@SAXPAVMImpsDataAccessor@@ABVTDesC16@@@Z @ 80 NONAME ; void TImpsDataUtils::SetTransactionIDL(class MImpsDataAccessor *, class TDesC16 const &)
	?Size@CImpsFields@@QBEHXZ @ 81 NONAME ; int CImpsFields::Size(void) const
	?StoreBooleanL@TImpsDataAccessor@@UAEXPAVMImpsKey@@H@Z @ 82 NONAME ; void TImpsDataAccessor::StoreBooleanL(class MImpsKey *, int)
	?StoreDesc8L@TImpsDataAccessor@@UAEXPAVMImpsKey@@VTPtrC8@@@Z @ 83 NONAME ; void TImpsDataAccessor::StoreDesc8L(class MImpsKey *, class TPtrC8)
	?StoreDescL@TImpsDataAccessor@@UAEXPAVMImpsKey@@VTPtrC16@@@Z @ 84 NONAME ; void TImpsDataAccessor::StoreDescL(class MImpsKey *, class TPtrC16)
	?StoreEmptyL@TImpsDataAccessor@@UAEXPAVMImpsKey@@@Z @ 85 NONAME ; void TImpsDataAccessor::StoreEmptyL(class MImpsKey *)
	?StoreExtL@TImpsDataAccessor@@UAEXPAVMImpsKey@@VTPtrC8@@1@Z @ 86 NONAME ; void TImpsDataAccessor::StoreExtL(class MImpsKey *, class TPtrC8, class TPtrC8)
	?StoreIntegerL@TImpsDataAccessor@@UAEXPAVMImpsKey@@H@Z @ 87 NONAME ; void TImpsDataAccessor::StoreIntegerL(class MImpsKey *, int)
	?TidL@CImpsFields@@QAE?AVTPtrC16@@XZ @ 88 NONAME ; class TPtrC16 CImpsFields::TidL(void)
	?UnpackEntityL@TImpsPackedEntity@@QAEXAAVCImpsFields@@@Z @ 89 NONAME ; void TImpsPackedEntity::UnpackEntityL(class CImpsFields &)
	?impsService@@YA?AW4TImpsEventType@@PBVCImpsVariant@@W4TImpsMessageType@@@Z @ 90 NONAME ; enum TImpsEventType impsService(class CImpsVariant const *, enum TImpsMessageType)
	?GetContentDataTypeL@TImpsDataUtils@@SA?AW4TImpsDataType@@PAVMImpsDataAccessor@@H@Z @ 91 NONAME ; enum TImpsDataType TImpsDataUtils::GetContentDataTypeL(class MImpsDataAccessor *, int)

