EXPORTS
	??1CCABlockingManager@@UAE@XZ @ 1 NONAME ; CCABlockingManager::~CCABlockingManager(void)
	??1CCAEngine@@UAE@XZ @ 2 NONAME ; CCAEngine::~CCAEngine(void)
	??1CCAInvitationRequest@@UAE@XZ @ 3 NONAME ; CCAInvitationRequest::~CCAInvitationRequest(void)
	?BackgroundInterface@CCAEngine@@QBEPAVMCABackgroundInterface@@XZ @ 4 NONAME ; class MCABackgroundInterface * CCAEngine::BackgroundInterface(void) const
	?CancelAllRequests@CCAEngine@@QAEXXZ @ 5 NONAME ; void CCAEngine::CancelAllRequests(void)
	?ChatInterface@CCAEngine@@QBEAAVMCAChatInterface@@XZ @ 6 NONAME ; class MCAChatInterface & CCAEngine::ChatInterface(void) const
	?Code@CCAErrorData@@UBEHXZ @ 7 NONAME ; int CCAErrorData::Code(void) const
	?ContactListModel@CCAEngine@@QBEAAVMCAContactListModel@@XZ @ 8 NONAME ; class MCAContactListModel & CCAEngine::ContactListModel(void) const
	?Description@CCAErrorData@@UBEABVTDesC16@@XZ @ 9 NONAME ; class TDesC16 const & CCAErrorData::Description(void) const
	?EndSearchL@CCASearchManager@@UAEHXZ @ 10 NONAME ; int CCASearchManager::EndSearchL(void)
	?FinalizeEngineConstructionL@CCAEngine@@QAEXXZ @ 11 NONAME ; void CCAEngine::FinalizeEngineConstructionL(void)
	?GetAccessInterface@CCAEngine@@QBEPAVMCAAccessInterface@@XZ @ 12 NONAME ; class MCAAccessInterface * CCAEngine::GetAccessInterface(void) const
	?GetBlockingInterface@CCAEngine@@QBEPAVMCABlocking@@XZ @ 13 NONAME ; class MCABlocking * CCAEngine::GetBlockingInterface(void) const
	?GetFundClientInterface@CCAEngine@@QBEPAVMCAImpsFundClient@@XZ @ 14 NONAME ; class MCAImpsFundClient * CCAEngine::GetFundClientInterface(void) const
	?GetGroupInterface@CCAEngine@@QBEPAVMCAGroupManagerInterface@@XZ @ 15 NONAME ; class MCAGroupManagerInterface * CCAEngine::GetGroupInterface(void) const
	?GetInternalSettingsInterface@CCAEngine@@QBEPAVMCASettings@@XZ @ 16 NONAME ; class MCASettings * CCAEngine::GetInternalSettingsInterface(void) const
	?GetInvitationInterface@CCAEngine@@QBEPAVMCAInvite@@XZ @ 17 NONAME ; class MCAInvite * CCAEngine::GetInvitationInterface(void) const
	?GetLoggerHeadersInterface@CCAEngine@@QAEPAVMCALoggerHeadersInterface@@XZ @ 18 NONAME ; class MCALoggerHeadersInterface * CCAEngine::GetLoggerHeadersInterface(void)
	?GetSearchInterface@CCAEngine@@QBEPAVMCASearchInterface@@XZ @ 19 NONAME ; class MCASearchInterface * CCAEngine::GetSearchInterface(void) const
	?GroupID@CCAInvitationRequest@@QBEABVTDesC16@@XZ @ 20 NONAME ; class TDesC16 const & CCAInvitationRequest::GroupID(void) const
	?GroupIDs@CCAErrorData@@UBEABVCDesC16Array@@XZ @ 21 NONAME ; class CDesC16Array const & CCAErrorData::GroupIDs(void) const
	?HandleNetworkStateChangeL@CCAEngine@@QAEXW4TNetworkState@@PAVTPEngWVCspServicesTree2@@ABUSServerPrefers@@PAVCPEngNWSessionSlotID2@@@Z @ 22 NONAME ; void CCAEngine::HandleNetworkStateChangeL(enum TNetworkState, class TPEngWVCspServicesTree2 *, struct SServerPrefers const &, class CPEngNWSessionSlotID2 *)
	?HowManyResultsAvailable@CCASearchData@@UBEHXZ @ 23 NONAME ; int CCASearchData::HowManyResultsAvailable(void) const
	?Invitees@CCAInvitationRequest@@QBEABVCDesC16Array@@XZ @ 24 NONAME ; class CDesC16Array const & CCAInvitationRequest::Invitees(void) const
	?IsBackgroundTaskPending@CCAEngine@@QAEHXZ @ 25 NONAME ; int CCAEngine::IsBackgroundTaskPending(void)
	?IsFinalized@CCAEngine@@QAEHXZ @ 26 NONAME ; int CCAEngine::IsFinalized(void)
	?Message@CCAInvitationRequest@@QBEABVTDesC16@@XZ @ 27 NONAME ; class TDesC16 const & CCAInvitationRequest::Message(void) const
	?MessageIDs@CCAErrorData@@UBEABVCDesC16Array@@XZ @ 28 NONAME ; class CDesC16Array const & CCAErrorData::MessageIDs(void) const
	?MessageUtils@CCAEngine@@QBEABVMCAMessageUtils@@XZ @ 29 NONAME ; class MCAMessageUtils const & CCAEngine::MessageUtils(void) const
	?NewL@CCABlockingManager@@SAPAV1@PAVMCAImpsFactory@@PAVCCARequestMapper@@PAVMCASettings@@@Z @ 30 NONAME ; class CCABlockingManager * CCABlockingManager::NewL(class MCAImpsFactory *, class CCARequestMapper *, class MCASettings *)
	?NewL@CCAEngine@@SAPAV1@VTUid@@@Z @ 31 NONAME ; class CCAEngine * CCAEngine::NewL(class TUid)
	?NewL@CCAInvitationRequest@@SAPAV1@ABVCDesC16Array@@ABVTDesC16@@1H@Z @ 32 NONAME ; class CCAInvitationRequest * CCAInvitationRequest::NewL(class CDesC16Array const &, class TDesC16 const &, class TDesC16 const &, int)
	?NoMoreResultsAvailable@CCASearchData@@UBEHXZ @ 33 NONAME ; int CCASearchData::NoMoreResultsAvailable(void) const
	?PartialSuccessData@CCAEngine@@QBEPBV?$RPointerArray@VMCAError@@@@XZ @ 34 NONAME ; class RPointerArray<class MCAError> const * CCAEngine::PartialSuccessData(void) const
	?ReadyForShutdown@CCAEngine@@QAEHXZ @ 35 NONAME ; int CCAEngine::ReadyForShutdown(void)
	?RegisterBackGroundTaskObserver@CCAEngine@@QAEXPAVMCABackGroundTaskObserver@@@Z @ 36 NONAME ; void CCAEngine::RegisterBackGroundTaskObserver(class MCABackGroundTaskObserver *)
	?ScreenNameGroup@CCAErrorData@@UBEABVCDesC16Array@@XZ @ 37 NONAME ; class CDesC16Array const & CCAErrorData::ScreenNameGroup(void) const
	?ScreenNames@CCAErrorData@@UBEABVCDesC16Array@@XZ @ 38 NONAME ; class CDesC16Array const & CCAErrorData::ScreenNames(void) const
	?SearchData@CCASearchData@@UBE?AVTPtrC16@@H@Z @ 39 NONAME ; class TPtrC16 CCASearchData::SearchData(int) const
	?SearchDataCount@CCASearchData@@UBEHXZ @ 40 NONAME ; int CCASearchData::SearchDataCount(void) const
	?SearchDataInterface@CCASearchManager@@UBEPAVMCASearchData@@XZ @ 41 NONAME ; class MCASearchData * CCASearchManager::SearchDataInterface(void) const
	?SearchNextL@CCASearchManager@@UAEHHPAVMCASearchObserverInterface@@@Z @ 42 NONAME ; int CCASearchManager::SearchNextL(int, class MCASearchObserverInterface *)
	?SearchResultType@CCASearchData@@UBE?AW4TImpsSearchResultType@@XZ @ 43 NONAME ; enum TImpsSearchResultType CCASearchData::SearchResultType(void) const
	?SetThumbnailSize@CCAContentMessage@@QAEXVTSize@@@Z @ 44 NONAME ; void CCAContentMessage::SetThumbnailSize(class TSize)
	?StartSearchL@CCASearchManager@@UAEHABV?$CArrayPtrFlat@VCImpsSearchRequest@@@@HPAVMCASearchObserverInterface@@@Z @ 45 NONAME ; int CCASearchManager::StartSearchL(class CArrayPtrFlat<class CImpsSearchRequest> const &, int, class MCASearchObserverInterface *)
	?Thumbnail@CCAContentMessage@@QBEPAVCFbsBitmap@@XZ @ 46 NONAME ; class CFbsBitmap * CCAContentMessage::Thumbnail(void) const
	?Timeout@CCAInvitationRequest@@QBEHXZ @ 47 NONAME ; int CCAInvitationRequest::Timeout(void) const
	?UnRegisterBackGroundTaskObserver@CCAEngine@@QAEXPAVMCABackGroundTaskObserver@@@Z @ 48 NONAME ; void CCAEngine::UnRegisterBackGroundTaskObserver(class MCABackGroundTaskObserver *)
	?UserIDs@CCAErrorData@@UBEABVCDesC16Array@@XZ @ 49 NONAME ; class CDesC16Array const & CCAErrorData::UserIDs(void) const
	?ResetLoggers@CCAEngine@@QAEXXZ @ 50 NONAME ; void CCAEngine::ResetLoggers(void)

